	.file	"load-scene.c"
	.intel_syntax noprefix
	.text
.Ltext0:
	.file 0 "/home/randompigyt/Hogxel-Engine/src/doom-style-renderer" "/home/randompigyt/Hogxel-Engine/src/doom-style-renderer/load-scene.c"
	.section	.rodata.str1.8,"aMS",@progbits,1
	.align 8
.LC0:
	.string	"/home/randompigyt/Hogxel-Engine/src/doom-style-renderer/load-scene.c"
	.align 8
.LC1:
	.string	"(((*view).view >= (*chunk_src).view) || (*view).view == NULL) && \"View out of bounds\""
	.align 8
.LC2:
	.string	"(*view).view < (*chunk_src).view + (*chunk_src).length && \"View out of bounds\""
	.text
	.p2align 4
	.type	next_chunk.isra.0, @function
next_chunk.isra.0:
.LVL0:
.LFB1304:
	.file 1 "/home/randompigyt/Hogxel-Engine/src/doom-style-renderer/load-scene.c"
	.loc 1 43 13 view -0
	.cfi_startproc
	.loc 1 43 13 is_stmt 0 view .LVU1
	push	r15
	.cfi_def_cfa_offset 16
	.cfi_offset 15, -16
	mov	r15, rdx
	push	r14
	.cfi_def_cfa_offset 24
	.cfi_offset 14, -24
	mov	r14, rdi
	push	r13
	.cfi_def_cfa_offset 32
	.cfi_offset 13, -32
	push	r12
	.cfi_def_cfa_offset 40
	.cfi_offset 12, -40
	mov	r12, rsi
	push	rbp
	.cfi_def_cfa_offset 48
	.cfi_offset 6, -48
	push	rbx
	.cfi_def_cfa_offset 56
	.cfi_offset 3, -56
	sub	rsp, 40
	.cfi_def_cfa_offset 96
	.loc 1 46 3 view .LVU2
	mov	rax, QWORD PTR [rdi]
	.loc 1 43 13 view .LVU3
	mov	rbp, QWORD PTR fs:40
	mov	QWORD PTR 24[rsp], rbp
	mov	rbp, rcx
.LVL1:
	.loc 1 46 3 is_stmt 1 view .LVU4
	.loc 1 46 3 view .LVU5
	cmp	rax, rsi
	jnb	.L2
	.loc 1 46 3 is_stmt 0 discriminator 2 view .LVU6
	test	rax, rax
	jne	.L28
.LVL2:
.L3:
.LBB14:
.LBB15:
.LBB16:
.LBB17:
	.loc 1 34 26 is_stmt 1 discriminator 1 view .LVU7
	test	r15, r15
	je	.L6
	.loc 1 34 17 is_stmt 0 view .LVU8
	xor	ebx, ebx
	lea	r13, 22[rsp]
	jmp	.L8
.LVL3:
	.p2align 4,,10
	.p2align 3
.L7:
	.loc 1 34 34 is_stmt 1 discriminator 2 view .LVU9
	add	rbx, 1
.LVL4:
	.loc 1 34 26 discriminator 1 view .LVU10
	cmp	r15, rbx
	je	.L6
.LVL5:
.L8:
	.loc 1 35 5 view .LVU11
.LBB18:
	.loc 1 35 41 is_stmt 0 view .LVU12
	movzx	eax, BYTE PTR [r12+rbx]
	.loc 1 35 9 view .LVU13
	mov	rsi, r13
	mov	rdi, rbp
	.loc 1 35 41 view .LVU14
	mov	BYTE PTR 23[rsp], 0
	mov	BYTE PTR 22[rsp], al
	.loc 1 35 9 view .LVU15
	call	strstr@PLT
.LVL6:
	.loc 1 35 8 discriminator 1 view .LVU16
	test	rax, rax
	je	.L7
	.loc 1 36 7 is_stmt 1 view .LVU17
	.loc 1 36 39 is_stmt 0 view .LVU18
	mov	r15, rbx
.LVL7:
.L6:
	.loc 1 36 39 view .LVU19
.LBE18:
.LBE17:
.LBE16:
.LBE15:
	.loc 1 49 11 view .LVU20
	mov	QWORD PTR [r14], r12
	mov	QWORD PTR 8[r14], r15
	.loc 1 55 5 is_stmt 1 view .LVU21
	jmp	.L1
.LVL8:
	.p2align 4,,10
	.p2align 3
.L2:
	.loc 1 55 5 is_stmt 0 view .LVU22
.LBE14:
	.loc 1 46 3 is_stmt 1 discriminator 1 view .LVU23
	lea	rcx, [rsi+rdx]
.LVL9:
	.loc 1 46 3 is_stmt 0 discriminator 1 view .LVU24
	cmp	rax, rcx
	jnb	.L29
	.loc 1 46 3 is_stmt 1 view .LVU25
	.loc 1 48 3 view .LVU26
	.loc 1 48 6 is_stmt 0 view .LVU27
	test	rax, rax
	je	.L3
	.loc 1 58 3 is_stmt 1 view .LVU28
.LVL10:
	.loc 1 60 3 view .LVU29
	.loc 1 60 14 is_stmt 0 view .LVU30
	mov	rdx, QWORD PTR 8[rdi]
	lea	r15, 1[rax+rdx]
	mov	QWORD PTR [rdi], r15
	.loc 1 61 3 is_stmt 1 view .LVU31
	.loc 1 61 6 is_stmt 0 view .LVU32
	cmp	r15, rcx
	jnb	.L30
	.loc 1 66 3 is_stmt 1 view .LVU33
	.loc 1 66 18 is_stmt 0 view .LVU34
	mov	rdi, r15
.LVL11:
	.loc 1 66 18 view .LVU35
	call	strlen@PLT
.LVL12:
	.loc 1 66 18 view .LVU36
	mov	QWORD PTR 8[rsp], rax
.LVL13:
.LBB19:
.LBI19:
	.loc 1 32 17 is_stmt 1 view .LVU37
.LBB20:
	.loc 1 34 3 view .LVU38
.LBB21:
	.loc 1 34 8 view .LVU39
	.loc 1 34 26 discriminator 1 view .LVU40
.LBE21:
.LBE20:
.LBE19:
	.loc 1 66 18 is_stmt 0 view .LVU41
	mov	r12, rax
.LBB25:
.LBB24:
.LBB23:
	.loc 1 34 26 discriminator 1 view .LVU42
	test	rax, rax
	je	.L11
	.loc 1 34 17 view .LVU43
	xor	ebx, ebx
	lea	r13, 22[rsp]
	jmp	.L13
.LVL14:
	.p2align 4,,10
	.p2align 3
.L12:
	.loc 1 34 34 is_stmt 1 discriminator 2 view .LVU44
	add	rbx, 1
.LVL15:
	.loc 1 34 26 discriminator 1 view .LVU45
	cmp	r12, rbx
	je	.L11
.LVL16:
.L13:
	.loc 1 35 5 view .LVU46
.LBB22:
	.loc 1 35 41 is_stmt 0 view .LVU47
	movzx	eax, BYTE PTR [r15+rbx]
	.loc 1 35 9 view .LVU48
	mov	rsi, r13
	mov	rdi, rbp
	.loc 1 35 41 view .LVU49
	mov	BYTE PTR 23[rsp], 0
	mov	BYTE PTR 22[rsp], al
	.loc 1 35 9 view .LVU50
	call	strstr@PLT
.LVL17:
	.loc 1 35 8 discriminator 1 view .LVU51
	test	rax, rax
	je	.L12
	.loc 1 36 7 is_stmt 1 view .LVU52
	.loc 1 36 39 is_stmt 0 view .LVU53
	mov	QWORD PTR 8[rsp], rbx
.LVL18:
.L11:
	.loc 1 36 39 view .LVU54
.LBE22:
.LBE23:
.LBE24:
.LBE25:
	.loc 1 66 16 discriminator 2 view .LVU55
	mov	rax, QWORD PTR 8[rsp]
	mov	QWORD PTR 8[r14], rax
.LVL19:
.L1:
	.loc 1 67 1 view .LVU56
	mov	rax, QWORD PTR 24[rsp]
	sub	rax, QWORD PTR fs:40
	jne	.L31
	add	rsp, 40
	.cfi_remember_state
	.cfi_def_cfa_offset 56
	pop	rbx
	.cfi_def_cfa_offset 48
	pop	rbp
	.cfi_def_cfa_offset 40
.LVL20:
	.loc 1 67 1 view .LVU57
	pop	r12
	.cfi_def_cfa_offset 32
	pop	r13
	.cfi_def_cfa_offset 24
	pop	r14
	.cfi_def_cfa_offset 16
.LVL21:
	.loc 1 67 1 view .LVU58
	pop	r15
	.cfi_def_cfa_offset 8
	ret
.LVL22:
	.p2align 4,,10
	.p2align 3
.L30:
	.cfi_restore_state
.LBB26:
	.loc 1 62 5 is_stmt 1 view .LVU59
	.loc 1 62 11 is_stmt 0 view .LVU60
	pxor	xmm0, xmm0
	movups	XMMWORD PTR [rdi], xmm0
	.loc 1 63 5 is_stmt 1 view .LVU61
	jmp	.L1
.LVL23:
.L29:
	.loc 1 63 5 is_stmt 0 view .LVU62
.LBE26:
	.loc 1 46 3 is_stmt 1 discriminator 4 view .LVU63
	lea	rcx, __PRETTY_FUNCTION__.0[rip]
	mov	edx, 46
	lea	rsi, .LC0[rip]
	lea	rdi, .LC2[rip]
.LVL24:
	.loc 1 46 3 is_stmt 0 discriminator 4 view .LVU64
	call	__assert_fail@PLT
.LVL25:
.L31:
	.loc 1 67 1 view .LVU65
	call	__stack_chk_fail@PLT
.LVL26:
.L28:
	.loc 1 46 3 is_stmt 1 discriminator 3 view .LVU66
	lea	rcx, __PRETTY_FUNCTION__.0[rip]
.LVL27:
	.loc 1 46 3 is_stmt 0 discriminator 3 view .LVU67
	mov	edx, 46
	lea	rsi, .LC0[rip]
	lea	rdi, .LC1[rip]
.LVL28:
	.loc 1 46 3 discriminator 3 view .LVU68
	call	__assert_fail@PLT
.LVL29:
	.cfi_endproc
.LFE1304:
	.size	next_chunk.isra.0, .-next_chunk.isra.0
	.section	.rodata.str1.1,"aMS",@progbits,1
.LC3:
	.string	"rb"
	.section	.rodata.str1.8
	.align 8
.LC4:
	.string	"[ERROR]: Failed to open file %s: "
	.text
	.p2align 4
	.globl	fio_read_file
	.type	fio_read_file, @function
fio_read_file:
.LVL30:
.LFB1298:
	.file 2 "/home/randompigyt/Hogxel-Engine/src/util/fileIO.h"
	.loc 2 18 39 is_stmt 1 view -0
	.cfi_startproc
	.loc 2 18 39 is_stmt 0 view .LVU70
	push	r12
	.cfi_def_cfa_offset 16
	.cfi_offset 12, -16
	.loc 2 19 13 view .LVU71
	lea	rsi, .LC3[rip]
	.loc 2 18 39 view .LVU72
	push	rbp
	.cfi_def_cfa_offset 24
	.cfi_offset 6, -24
	push	rbx
	.cfi_def_cfa_offset 32
	.cfi_offset 3, -32
	sub	rsp, 160
	.cfi_def_cfa_offset 192
	.loc 2 18 39 view .LVU73
	mov	rbp, QWORD PTR fs:40
	mov	QWORD PTR 152[rsp], rbp
	mov	rbp, rdi
	.loc 2 19 3 is_stmt 1 view .LVU74
	.loc 2 19 13 is_stmt 0 view .LVU75
	call	fopen@PLT
.LVL31:
	.loc 2 20 3 is_stmt 1 view .LVU76
	.loc 2 20 6 is_stmt 0 view .LVU77
	test	rax, rax
	je	.L37
	.loc 2 28 3 view .LVU78
	mov	rdi, rax
	mov	rbx, rax
	.loc 2 27 3 is_stmt 1 view .LVU79
	.loc 2 28 3 view .LVU80
	call	fileno@PLT
.LVL32:
	.loc 2 28 3 is_stmt 0 discriminator 1 view .LVU81
	mov	rsi, rsp
	.loc 2 28 3 view .LVU82
	mov	edi, eax
	.loc 2 28 3 discriminator 1 view .LVU83
	call	fstat@PLT
.LVL33:
	.loc 2 30 3 is_stmt 1 view .LVU84
	.loc 2 30 12 is_stmt 0 view .LVU85
	mov	r12, QWORD PTR 48[rsp]
.LVL34:
	.loc 2 31 3 is_stmt 1 view .LVU86
	.loc 2 31 15 is_stmt 0 view .LVU87
	lea	rdi, 1[r12]
	call	malloc@PLT
.LVL35:
	.loc 2 33 3 view .LVU88
	mov	rcx, rbx
	mov	rdx, r12
	mov	esi, 1
	.loc 2 31 15 view .LVU89
	mov	rbp, rax
.LVL36:
	.loc 2 33 3 is_stmt 1 view .LVU90
	mov	rdi, rax
	call	fread@PLT
.LVL37:
	.loc 2 34 3 view .LVU91
	.loc 2 34 13 is_stmt 0 view .LVU92
	mov	BYTE PTR 0[rbp+r12], 0
	.loc 2 36 3 is_stmt 1 view .LVU93
	mov	rdi, rbx
	call	fclose@PLT
.LVL38:
	.loc 2 38 3 view .LVU94
.L32:
	.loc 2 39 1 is_stmt 0 view .LVU95
	mov	rax, QWORD PTR 152[rsp]
	sub	rax, QWORD PTR fs:40
	jne	.L38
	add	rsp, 160
	.cfi_remember_state
	.cfi_def_cfa_offset 32
	mov	rax, rbp
	pop	rbx
	.cfi_def_cfa_offset 24
	pop	rbp
	.cfi_def_cfa_offset 16
	pop	r12
	.cfi_def_cfa_offset 8
	ret
.LVL39:
.L37:
	.cfi_restore_state
	.loc 2 21 5 is_stmt 1 view .LVU96
	mov	rax, QWORD PTR stderr@GOTPCREL[rip]
.LVL40:
	.loc 2 21 5 is_stmt 0 view .LVU97
	mov	rdx, rbp
	.loc 2 24 12 view .LVU98
	xor	ebp, ebp
.LVL41:
	.loc 2 21 5 view .LVU99
	lea	rsi, .LC4[rip]
	mov	rdi, QWORD PTR [rax]
	xor	eax, eax
	call	fprintf@PLT
.LVL42:
	.loc 2 22 5 is_stmt 1 view .LVU100
	xor	edi, edi
	call	perror@PLT
.LVL43:
	.loc 2 24 5 view .LVU101
	.loc 2 24 12 is_stmt 0 view .LVU102
	jmp	.L32
.L38:
	.loc 2 39 1 view .LVU103
	call	__stack_chk_fail@PLT
.LVL44:
	.cfi_endproc
.LFE1298:
	.size	fio_read_file, .-fio_read_file
	.section	.rodata.str1.1
.LC5:
	.string	"\n"
.LC6:
	.string	"Tokens {"
.LC7:
	.string	" \n\t"
.LC8:
	.string	"  %.*s,\n"
.LC9:
	.string	"}"
	.text
	.p2align 4
	.globl	dsr_load_scene
	.type	dsr_load_scene, @function
dsr_load_scene:
.LVL45:
.LFB1303:
	.loc 1 104 70 is_stmt 1 view -0
	.cfi_startproc
	.loc 1 104 70 is_stmt 0 view .LVU105
	push	r15
	.cfi_def_cfa_offset 16
	.cfi_offset 15, -16
	push	r14
	.cfi_def_cfa_offset 24
	.cfi_offset 14, -24
	push	r13
	.cfi_def_cfa_offset 32
	.cfi_offset 13, -32
	push	r12
	.cfi_def_cfa_offset 40
	.cfi_offset 12, -40
	push	rbp
	.cfi_def_cfa_offset 48
	.cfi_offset 6, -48
	push	rbx
	.cfi_def_cfa_offset 56
	.cfi_offset 3, -56
	sub	rsp, 72
	.cfi_def_cfa_offset 128
	.loc 1 104 70 view .LVU106
	mov	rax, QWORD PTR fs:40
	mov	QWORD PTR 56[rsp], rax
	xor	eax, eax
	.loc 1 105 3 is_stmt 1 view .LVU107
	.loc 1 107 3 view .LVU108
	.loc 1 107 21 is_stmt 0 view .LVU109
	call	fio_read_file@PLT
.LVL46:
	.loc 1 108 3 is_stmt 1 view .LVU110
	.loc 1 108 6 is_stmt 0 view .LVU111
	test	rax, rax
	je	.L46
	mov	r14, rax
	lea	rax, 16[rsp]
.LVL47:
	.loc 1 112 21 view .LVU112
	xor	ebp, ebp
	xor	ebx, ebx
	mov	QWORD PTR 8[rsp], rax
	lea	r13, .LC7[rip]
	jmp	.L44
.LVL48:
	.p2align 4,,10
	.p2align 3
.L41:
	.loc 1 122 12 is_stmt 1 view .LVU113
	test	rbx, rbx
	je	.L56
.LVL49:
.L44:
	.loc 1 113 3 view .LVU114
.LBB30:
	.loc 1 114 5 view .LVU115
	.loc 1 114 56 is_stmt 0 view .LVU116
	mov	rdi, r14
	call	strlen@PLT
.LVL50:
	.loc 1 114 5 discriminator 1 view .LVU117
	mov	rdi, QWORD PTR 8[rsp]
	mov	rsi, r14
	lea	rcx, .LC5[rip]
	.loc 1 114 56 view .LVU118
	mov	rdx, rax
	.loc 1 114 5 discriminator 1 view .LVU119
	mov	QWORD PTR 16[rsp], rbx
	mov	QWORD PTR 24[rsp], rbp
	call	next_chunk.isra.0
.LVL51:
	mov	rbp, QWORD PTR 24[rsp]
.LVL52:
	.loc 1 114 5 discriminator 1 view .LVU120
	mov	rbx, QWORD PTR 16[rsp]
.LVL53:
	.loc 1 118 5 is_stmt 1 view .LVU121
	.loc 1 118 8 is_stmt 0 view .LVU122
	test	rbp, rbp
	je	.L41
	.loc 1 119 7 is_stmt 1 view .LVU123
.LVL54:
.LBB31:
.LBI31:
	.loc 1 89 13 view .LVU124
.LBB32:
	.loc 1 90 3 view .LVU125
	.loc 1 92 3 view .LVU126
	lea	rdi, .LC6[rip]
	.loc 1 90 21 is_stmt 0 view .LVU127
	xor	r15d, r15d
	lea	r12, 32[rsp]
	.loc 1 92 3 view .LVU128
	call	puts@PLT
.LVL55:
	.loc 1 90 21 view .LVU129
	xor	ecx, ecx
	jmp	.L43
.LVL56:
	.p2align 4,,10
	.p2align 3
.L42:
	.loc 1 98 12 is_stmt 1 view .LVU130
	test	r15, r15
	je	.L57
.LVL57:
.L43:
	.loc 1 93 3 view .LVU131
	.loc 1 94 5 view .LVU132
	mov	QWORD PTR 40[rsp], rcx
	mov	rdx, rbp
	mov	rcx, r13
.LVL58:
	.loc 1 94 5 is_stmt 0 view .LVU133
	mov	rsi, rbx
	mov	rdi, r12
	mov	QWORD PTR 32[rsp], r15
	call	next_chunk.isra.0
.LVL59:
	.loc 1 94 5 view .LVU134
	mov	rcx, QWORD PTR 40[rsp]
	mov	r15, QWORD PTR 32[rsp]
.LVL60:
	.loc 1 95 5 is_stmt 1 view .LVU135
	.loc 1 95 8 is_stmt 0 view .LVU136
	test	rcx, rcx
	je	.L42
	.loc 1 96 7 is_stmt 1 view .LVU137
	mov	esi, ecx
	mov	rdx, r15
	lea	rdi, .LC8[rip]
	xor	eax, eax
	mov	QWORD PTR [rsp], rcx
	call	printf@PLT
.LVL61:
	.loc 1 96 7 is_stmt 0 view .LVU138
	mov	rcx, QWORD PTR [rsp]
	.loc 1 98 12 is_stmt 1 view .LVU139
	test	r15, r15
	jne	.L43
.LVL62:
.L57:
	.loc 1 99 3 view .LVU140
	lea	rdi, .LC9[rip]
	call	puts@PLT
.LVL63:
	.loc 1 101 3 view .LVU141
	.loc 1 101 3 is_stmt 0 view .LVU142
.LBE32:
.LBE31:
.LBE30:
	.loc 1 122 12 is_stmt 1 view .LVU143
	test	rbx, rbx
	jne	.L44
.L56:
	.loc 1 124 3 view .LVU144
	mov	rdi, r14
	call	free@PLT
.LVL64:
	.loc 1 125 3 view .LVU145
	.loc 1 125 10 is_stmt 0 view .LVU146
	mov	eax, 1
.LVL65:
.L39:
	.loc 1 126 1 view .LVU147
	mov	rdx, QWORD PTR 56[rsp]
	sub	rdx, QWORD PTR fs:40
	jne	.L58
	add	rsp, 72
	.cfi_remember_state
	.cfi_def_cfa_offset 56
	pop	rbx
	.cfi_def_cfa_offset 48
	pop	rbp
	.cfi_def_cfa_offset 40
	pop	r12
	.cfi_def_cfa_offset 32
	pop	r13
	.cfi_def_cfa_offset 24
	pop	r14
	.cfi_def_cfa_offset 16
	pop	r15
	.cfi_def_cfa_offset 8
	ret
.LVL66:
.L46:
	.cfi_restore_state
	.loc 1 109 12 view .LVU148
	xor	eax, eax
.LVL67:
	.loc 1 109 12 view .LVU149
	jmp	.L39
.L58:
	.loc 1 126 1 view .LVU150
	call	__stack_chk_fail@PLT
.LVL68:
	.cfi_endproc
.LFE1303:
	.size	dsr_load_scene, .-dsr_load_scene
	.section	.rodata
	.align 8
	.type	__PRETTY_FUNCTION__.0, @object
	.size	__PRETTY_FUNCTION__.0, 11
__PRETTY_FUNCTION__.0:
	.string	"next_chunk"
	.text
.Letext0:
	.file 3 "/usr/include/bits/types.h"
	.file 4 "/usr/include/bits/stdint-uintn.h"
	.file 5 "/usr/lib/gcc/x86_64-pc-linux-gnu/14.1.1/include/stddef.h"
	.file 6 "/usr/include/bits/types/struct_timespec.h"
	.file 7 "/usr/include/bits/types/struct_FILE.h"
	.file 8 "/usr/include/bits/types/FILE.h"
	.file 9 "/home/randompigyt/Hogxel-Engine/include/doom-style-renderer.h"
	.file 10 "/usr/include/bits/struct_stat.h"
	.file 11 "/usr/include/stdio.h"
	.file 12 "/usr/include/string.h"
	.file 13 "/usr/include/assert.h"
	.file 14 "/usr/include/stdlib.h"
	.file 15 "/usr/include/sys/stat.h"
	.file 16 "<built-in>"
	.section	.note.GNU-stack,"",@progbits
