	.file	"render-walls.c"
	.intel_syntax noprefix
	.text
.Ltext0:
	.file 0 "/home/randompigyt/Hogxel-Engine/src/doom-style-renderer" "/home/randompigyt/Hogxel-Engine/src/doom-style-renderer/render-walls.c"
	.section	.rodata.str1.8,"aMS",@progbits,1
	.align 8
.LC0:
	.string	"/home/randompigyt/Hogxel-Engine/src/doom-style-renderer/render-walls.c"
	.align 8
.LC1:
	.string	"(surface->pixels) != NULL && \"Null pixel buffer\""
	.text
	.p2align 4
	.type	draw_vertical_line.constprop.0, @function
draw_vertical_line.constprop.0:
.LVL0:
.LFB1311:
	.file 1 "/home/randompigyt/Hogxel-Engine/src/doom-style-renderer/render-walls.c"
	.loc 1 251 13 view -0
	.cfi_startproc
	.loc 1 253 3 view .LVU1
	.loc 1 253 6 is_stmt 0 view .LVU2
	test	esi, esi
	js	.L18
	mov	r9d, esi
	.loc 1 253 13 discriminator 1 view .LVU3
	cmp	esi, DWORD PTR [rdi]
	jge	.L18
.LVL1:
.LBB876:
.LBI876:
	.loc 1 251 13 is_stmt 1 view .LVU4
.LBB877:
	.loc 1 256 3 view .LVU5
	.loc 1 256 6 is_stmt 0 view .LVU6
	cmp	edx, ecx
	jg	.L3
	mov	eax, ecx
	mov	ecx, edx
.LVL2:
	.loc 1 256 6 view .LVU7
	mov	edx, eax
.LVL3:
.L3:
	.loc 1 262 3 is_stmt 1 view .LVU8
	.loc 1 262 8 is_stmt 0 view .LVU9
	mov	eax, DWORD PTR 4[rdi]
	sub	eax, 1
.LVL4:
.LBB878:
.LBI878:
	.loc 1 239 23 is_stmt 1 view .LVU10
.LBB879:
	.loc 1 240 3 view .LVU11
	.loc 1 240 6 is_stmt 0 view .LVU12
	test	ecx, ecx
	js	.L21
	.loc 1 243 10 is_stmt 1 view .LVU13
	.loc 1 243 13 is_stmt 0 view .LVU14
	cmp	eax, ecx
	mov	esi, ecx
.LVL5:
	.loc 1 243 13 view .LVU15
	cmovle	esi, eax
.LVL6:
	.loc 1 243 13 view .LVU16
.LBE879:
.LBE878:
	.loc 1 263 3 is_stmt 1 view .LVU17
.LBB881:
.LBI881:
	.loc 1 239 23 view .LVU18
.LBB882:
	.loc 1 240 3 view .LVU19
	.loc 1 241 12 is_stmt 0 view .LVU20
	xor	r10d, r10d
	.loc 1 240 6 view .LVU21
	test	edx, edx
	js	.L7
.LVL7:
.L6:
	.loc 1 243 10 is_stmt 1 view .LVU22
	.loc 1 243 13 is_stmt 0 view .LVU23
	cmp	eax, edx
	cmovle	edx, eax
.LVL8:
	.loc 1 243 13 view .LVU24
	mov	r10d, edx
.L7:
.LVL9:
	.loc 1 243 13 view .LVU25
.LBE882:
.LBE881:
	.loc 1 264 3 is_stmt 1 view .LVU26
.LBB885:
	.loc 1 264 8 view .LVU27
	.loc 1 264 26 discriminator 1 view .LVU28
	cmp	r10d, esi
	jl	.L22
.LVL10:
.L5:
	.loc 1 264 26 is_stmt 0 discriminator 1 view .LVU29
.LBE885:
.LBE877:
.LBE876:
	.loc 1 251 13 view .LVU30
	push	r13
	.cfi_def_cfa_offset 16
	.cfi_offset 13, -16
	push	r12
	.cfi_def_cfa_offset 24
	.cfi_offset 12, -24
	push	rbp
	.cfi_def_cfa_offset 32
	.cfi_offset 6, -32
	push	rbx
	.cfi_def_cfa_offset 40
	.cfi_offset 3, -40
	sub	rsp, 8
	.cfi_def_cfa_offset 48
.LBB899:
.LBB897:
.LBB892:
.LBB886:
	.loc 1 265 52 view .LVU31
	movzx	r12d, BYTE PTR 36[rdi]
	movzx	ebp, BYTE PTR 37[rdi]
	movzx	ebx, BYTE PTR 38[rdi]
	movzx	r11d, BYTE PTR 35[rdi]
.LBE886:
.LBB887:
	.loc 1 265 5 discriminator 3 view .LVU32
	mov	rdx, QWORD PTR 40[rdi]
	.p2align 4,,10
	.p2align 3
.L10:
.LVL11:
	.loc 1 265 5 discriminator 3 view .LVU33
.LBE887:
	.loc 1 265 5 is_stmt 1 view .LVU34
.LBB888:
	.loc 1 265 52 view .LVU35
	.loc 1 265 52 view .LVU36
	.loc 1 265 52 view .LVU37
	.loc 1 265 52 view .LVU38
	movzx	eax, BYTE PTR [r8]
	mov	ecx, r12d
	movzx	r13d, BYTE PTR 1[r8]
	sal	eax, cl
	mov	ecx, ebp
	sal	r13d, cl
	mov	ecx, ebx
	or	eax, r13d
	movzx	r13d, BYTE PTR 2[r8]
	sal	r13d, cl
	or	eax, r13d
.LVL12:
	.loc 1 265 52 view .LVU39
	test	r11b, r11b
	je	.L8
	.loc 1 265 52 discriminator 1 view .LVU40
	movzx	r13d, BYTE PTR 3[r8]
	movzx	ecx, BYTE PTR 39[rdi]
	sal	r13d, cl
	or	eax, r13d
.LVL13:
.L8:
	.loc 1 265 52 discriminator 3 view .LVU41
.LBE888:
.LBB889:
	.loc 1 265 5 view .LVU42
	.loc 1 265 5 is_stmt 0 discriminator 3 view .LVU43
	test	rdx, rdx
	je	.L23
	.loc 1 265 5 is_stmt 1 view .LVU44
.LVL14:
	.loc 1 265 5 view .LVU45
	mov	ecx, DWORD PTR 8[rdi]
	movzx	r13d, BYTE PTR 13[rdi]
.LVL15:
	.loc 1 265 5 is_stmt 0 view .LVU46
	imul	ecx, esi
.LBE889:
	.loc 1 264 34 discriminator 2 view .LVU47
	add	esi, 1
.LVL16:
.LBB890:
	.loc 1 265 5 view .LVU48
	imul	r13d, r9d
.LVL17:
	.loc 1 265 5 view .LVU49
	add	ecx, r13d
	movsx	rcx, ecx
.LBE890:
	.loc 1 265 50 view .LVU50
	mov	DWORD PTR [rdx+rcx], eax
.LVL18:
	.loc 1 264 34 is_stmt 1 discriminator 2 view .LVU51
	.loc 1 264 26 discriminator 1 view .LVU52
	cmp	esi, r10d
	jle	.L10
.LBE892:
.LBE897:
.LBE899:
	.loc 1 268 1 is_stmt 0 view .LVU53
	add	rsp, 8
	.cfi_def_cfa_offset 40
	pop	rbx
	.cfi_def_cfa_offset 32
	pop	rbp
	.cfi_def_cfa_offset 24
	pop	r12
	.cfi_def_cfa_offset 16
	pop	r13
	.cfi_def_cfa_offset 8
	ret
.LVL19:
	.p2align 4,,10
	.p2align 3
.L18:
	.cfi_restore 3
	.cfi_restore 6
	.cfi_restore 12
	.cfi_restore 13
	.loc 1 268 1 view .LVU54
	ret
.LVL20:
	.p2align 4,,10
	.p2align 3
.L21:
.LBB900:
.LBB898:
	.loc 1 263 3 is_stmt 1 view .LVU55
.LBB893:
	.loc 1 239 23 view .LVU56
.LBB883:
	.loc 1 240 3 view .LVU57
.LBE883:
.LBE893:
.LBB894:
.LBB880:
	.loc 1 241 12 is_stmt 0 view .LVU58
	xor	esi, esi
.LVL21:
	.loc 1 241 12 view .LVU59
.LBE880:
.LBE894:
.LBB895:
.LBB884:
	.loc 1 240 6 view .LVU60
	test	edx, edx
	jns	.L6
	.loc 1 241 12 view .LVU61
	xor	r10d, r10d
	jmp	.L5
.LVL22:
.L22:
	.loc 1 241 12 view .LVU62
	ret
.LVL23:
.L23:
	.cfi_def_cfa_offset 48
	.cfi_offset 3, -40
	.cfi_offset 6, -32
	.cfi_offset 12, -24
	.cfi_offset 13, -16
	.loc 1 241 12 view .LVU63
.LBE884:
.LBE895:
.LBB896:
.LBB891:
	.loc 1 265 5 is_stmt 1 discriminator 4 view .LVU64
	lea	rcx, __PRETTY_FUNCTION__.0[rip]
	mov	edx, 265
	lea	rsi, .LC0[rip]
.LVL24:
	.loc 1 265 5 is_stmt 0 discriminator 4 view .LVU65
	lea	rdi, .LC1[rip]
.LVL25:
	.loc 1 265 5 discriminator 4 view .LVU66
	call	__assert_fail@PLT
.LVL26:
	.loc 1 265 5 discriminator 4 view .LVU67
.LBE891:
.LBE896:
.LBE898:
.LBE900:
	.cfi_endproc
.LFE1311:
	.size	draw_vertical_line.constprop.0, .-draw_vertical_line.constprop.0
	.p2align 4
	.type	intersect_line_segments.constprop.0, @function
intersect_line_segments.constprop.0:
.LVL27:
.LFB1313:
	.loc 1 56 13 is_stmt 1 view -0
	.cfi_startproc
	.loc 1 58 3 view .LVU69
	.loc 1 58 22 is_stmt 0 view .LVU70
	movss	xmm7, DWORD PTR [rdi]
.LVL28:
	.loc 1 58 35 view .LVU71
	movss	xmm6, DWORD PTR 8[rdi]
.LVL29:
	.loc 1 59 3 is_stmt 1 view .LVU72
	.loc 1 61 3 view .LVU73
	.loc 1 62 17 is_stmt 0 view .LVU74
	movss	xmm1, DWORD PTR 16[rdi]
	.loc 1 63 17 view .LVU75
	movss	xmm2, DWORD PTR 24[rdi]
	.loc 1 67 13 view .LVU76
	movss	xmm4, DWORD PTR 16[rsi]
	.loc 1 68 13 view .LVU77
	movss	xmm0, DWORD PTR 24[rsi]
	.loc 1 62 17 view .LVU78
	subss	xmm1, xmm7
.LVL30:
	.loc 1 63 17 view .LVU79
	subss	xmm2, xmm6
.LVL31:
	.loc 1 66 3 is_stmt 1 view .LVU80
	.loc 1 71 3 view .LVU81
.LBB911:
.LBI911:
	.file 2 "/home/randompigyt/Hogxel-Engine/external/cglm/include/cglm/vec2.h"
	.loc 2 149 1 view .LVU82
.LBB912:
	.loc 2 151 3 view .LVU83
	.loc 2 151 15 is_stmt 0 view .LVU84
	movaps	xmm3, xmm1
	.loc 2 151 29 view .LVU85
	movaps	xmm5, xmm2
	mulss	xmm5, xmm4
	.loc 2 151 15 view .LVU86
	mulss	xmm3, xmm0
	.loc 2 151 22 view .LVU87
	subss	xmm3, xmm5
.LVL32:
	.loc 2 151 22 view .LVU88
.LBE912:
.LBE911:
	.loc 1 72 3 is_stmt 1 view .LVU89
.LBB913:
.LBI913:
	.loc 1 52 20 view .LVU90
.LBB914:
	.loc 1 53 3 view .LVU91
	.loc 1 53 18 is_stmt 0 view .LVU92
	movss	xmm5, DWORD PTR .LC3[rip]
	comiss	xmm5, xmm3
	jbe	.L25
	.loc 1 53 18 discriminator 1 view .LVU93
	comiss	xmm3, DWORD PTR .LC4[rip]
	jbe	.L25
.LVL33:
.L45:
	.loc 1 53 18 discriminator 1 view .LVU94
.LBE914:
.LBE913:
	movss	xmm1, DWORD PTR .LC2[rip]
.LVL34:
	.loc 1 76 12 view .LVU95
	xor	eax, eax
	movaps	xmm2, xmm1
.LVL35:
	.loc 1 73 21 view .LVU96
	movss	DWORD PTR [rdx], xmm1
.LVL36:
	.loc 1 74 21 view .LVU97
	movss	DWORD PTR 8[rdx], xmm2
	.loc 1 99 1 view .LVU98
	ret
.LVL37:
	.p2align 4,,10
	.p2align 3
.L25:
	.loc 1 79 3 is_stmt 1 view .LVU99
	.loc 1 80 3 view .LVU100
.LBB915:
.LBI915:
	.loc 2 221 1 view .LVU101
.LBB916:
	.loc 2 222 3 view .LVU102
	.loc 2 222 18 is_stmt 0 view .LVU103
	pxor	xmm8, xmm8
	movaps	xmm5, xmm8
	.loc 2 223 18 view .LVU104
	movaps	xmm9, xmm8
	.loc 2 222 18 view .LVU105
	subss	xmm5, xmm7
.LVL38:
	.loc 2 223 3 is_stmt 1 view .LVU106
	.loc 2 223 18 is_stmt 0 view .LVU107
	subss	xmm9, xmm6
.LVL39:
	.loc 2 223 18 view .LVU108
.LBE916:
.LBE915:
	.loc 1 82 3 is_stmt 1 view .LVU109
.LBB917:
.LBI917:
	.loc 2 149 1 view .LVU110
.LBB918:
	.loc 2 151 3 view .LVU111
	.loc 2 151 3 is_stmt 0 view .LVU112
.LBE918:
.LBE917:
	.loc 1 83 3 is_stmt 1 view .LVU113
.LBB920:
.LBI920:
	.loc 2 149 1 view .LVU114
.LBB921:
	.loc 2 151 3 view .LVU115
	.loc 2 151 3 is_stmt 0 view .LVU116
.LBE921:
.LBE920:
	.loc 1 85 3 is_stmt 1 view .LVU117
.LBB923:
.LBB919:
	.loc 2 151 15 is_stmt 0 view .LVU118
	mulss	xmm0, xmm5
.LVL40:
	.loc 2 151 29 view .LVU119
	mulss	xmm4, xmm9
.LVL41:
	.loc 2 151 22 view .LVU120
	subss	xmm0, xmm4
.LVL42:
	.loc 2 151 22 view .LVU121
.LBE919:
.LBE923:
	.loc 1 85 9 view .LVU122
	divss	xmm0, xmm3
.LVL43:
	.loc 1 86 3 is_stmt 1 view .LVU123
	.loc 1 88 3 view .LVU124
	.loc 1 88 6 is_stmt 0 view .LVU125
	comiss	xmm0, xmm8
	jb	.L45
	.loc 1 88 19 discriminator 1 view .LVU126
	movss	xmm4, DWORD PTR .LC6[rip]
	comiss	xmm4, xmm0
	jb	.L45
.LBB924:
.LBB922:
	.loc 2 151 15 view .LVU127
	mulss	xmm5, xmm2
.LVL44:
	.loc 2 151 29 view .LVU128
	mulss	xmm9, xmm1
.LVL45:
	.loc 2 151 22 view .LVU129
	subss	xmm5, xmm9
.LVL46:
	.loc 2 151 22 view .LVU130
.LBE922:
.LBE924:
	.loc 1 86 9 view .LVU131
	divss	xmm5, xmm3
	.loc 1 88 32 discriminator 2 view .LVU132
	comiss	xmm5, xmm8
	jb	.L45
	.loc 1 88 7 discriminator 3 view .LVU133
	comiss	xmm4, xmm5
	jb	.L45
	.loc 1 95 3 is_stmt 1 view .LVU134
	.loc 1 95 33 is_stmt 0 view .LVU135
	mulss	xmm1, xmm0
.LVL47:
	.loc 1 98 10 view .LVU136
	mov	eax, 1
	.loc 1 96 33 view .LVU137
	mulss	xmm2, xmm0
.LVL48:
	.loc 1 95 26 view .LVU138
	addss	xmm1, xmm7
	.loc 1 96 3 is_stmt 1 view .LVU139
	.loc 1 96 26 is_stmt 0 view .LVU140
	addss	xmm2, xmm6
	.loc 1 98 3 is_stmt 1 view .LVU141
	.loc 1 73 21 is_stmt 0 view .LVU142
	movss	DWORD PTR [rdx], xmm1
.LVL49:
	.loc 1 74 21 view .LVU143
	movss	DWORD PTR 8[rdx], xmm2
	.loc 1 99 1 view .LVU144
	ret
	.cfi_endproc
.LFE1313:
	.size	intersect_line_segments.constprop.0, .-intersect_line_segments.constprop.0
	.p2align 4
	.type	get_relative_coords.constprop.0, @function
get_relative_coords.constprop.0:
.LVL50:
.LFB1314:
	.loc 1 16 20 is_stmt 1 view -0
	.cfi_startproc
	.loc 1 16 20 is_stmt 0 view .LVU146
	push	rbx
	.cfi_def_cfa_offset 16
	.cfi_offset 3, -16
	.loc 1 23 17 view .LVU147
	pxor	xmm1, xmm1
	.loc 1 16 20 view .LVU148
	sub	rsp, 112
	.cfi_def_cfa_offset 128
.LBB1032:
.LBB1033:
	.file 3 "/home/randompigyt/Hogxel-Engine/external/cglm/include/cglm/vec3.h"
	.loc 3 312 18 view .LVU149
	movss	xmm0, DWORD PTR [rsi]
	subss	xmm0, DWORD PTR 16[rdi]
.LBE1033:
.LBE1032:
	.loc 1 16 20 view .LVU150
	mov	rbx, QWORD PTR fs:40
	mov	QWORD PTR 104[rsp], rbx
	mov	rbx, rdx
	.loc 1 19 3 is_stmt 1 view .LVU151
.LVL51:
.LBB1036:
.LBI1032:
	.loc 3 311 1 view .LVU152
.LBB1034:
	.loc 3 312 3 view .LVU153
	.loc 3 312 11 is_stmt 0 view .LVU154
	movss	DWORD PTR [rdx], xmm0
	.loc 3 313 3 is_stmt 1 view .LVU155
	.loc 3 313 18 is_stmt 0 view .LVU156
	movss	xmm0, DWORD PTR 4[rsi]
	subss	xmm0, DWORD PTR 20[rdi]
	.loc 3 313 11 view .LVU157
	movss	DWORD PTR 4[rdx], xmm0
	.loc 3 314 3 is_stmt 1 view .LVU158
	.loc 3 314 18 is_stmt 0 view .LVU159
	movss	xmm0, DWORD PTR 8[rsi]
	subss	xmm0, DWORD PTR 24[rdi]
.LBE1034:
.LBE1036:
	.loc 1 21 22 view .LVU160
	mov	DWORD PTR 12[rdx], 0x3f800000
.LBB1037:
.LBB1035:
	.loc 3 314 11 view .LVU161
	movss	DWORD PTR 8[rdx], xmm0
.LVL52:
	.loc 3 314 11 view .LVU162
.LBE1035:
.LBE1037:
	.loc 1 21 3 is_stmt 1 view .LVU163
	.loc 1 23 3 view .LVU164
	.loc 1 23 17 is_stmt 0 view .LVU165
	pxor	xmm0, xmm0
	cvtss2sd	xmm1, DWORD PTR 36[rdi]
	cvtss2sd	xmm0, DWORD PTR 28[rdi]
	call	atan2@PLT
.LVL53:
	.loc 1 23 9 discriminator 1 view .LVU166
	pxor	xmm2, xmm2
	cvtsd2ss	xmm2, xmm0
.LVL54:
	.loc 1 24 3 is_stmt 1 view .LVU167
	.loc 1 25 3 view .LVU168
.LBB1038:
.LBI1038:
	.file 4 "/home/randompigyt/Hogxel-Engine/external/cglm/include/cglm/affine-pre.h"
	.loc 4 236 1 view .LVU169
.LBB1039:
	.loc 4 237 3 view .LVU170
	.loc 4 238 3 view .LVU171
.LBB1040:
.LBI1040:
	.file 5 "/home/randompigyt/Hogxel-Engine/external/cglm/include/cglm/affine.h"
	.loc 5 128 1 view .LVU172
.LBB1041:
	.loc 5 129 3 view .LVU173
	.loc 5 130 3 view .LVU174
	.loc 5 132 3 view .LVU175
	.loc 5 132 7 is_stmt 0 view .LVU176
	movaps	xmm0, xmm2
	movss	DWORD PTR 28[rsp], xmm2
	call	cosf@PLT
.LVL55:
	.loc 5 134 3 is_stmt 1 view .LVU177
	.loc 5 135 3 view .LVU178
.LBB1042:
.LBB1043:
	.loc 3 357 18 is_stmt 0 view .LVU179
	pxor	xmm5, xmm5
.LBE1043:
.LBE1042:
	.loc 5 135 3 view .LVU180
	movss	xmm4, DWORD PTR .LC6[rip]
.LBE1041:
.LBE1040:
.LBE1039:
.LBE1038:
	.loc 1 25 3 view .LVU181
	movss	xmm2, DWORD PTR 28[rsp]
.LBB1256:
.LBB1248:
.LBB1076:
.LBB1068:
	.loc 5 135 3 view .LVU182
	movss	DWORD PTR 24[rsp], xmm0
.LVL56:
	.loc 5 135 3 view .LVU183
.LBE1068:
.LBE1076:
.LBE1248:
.LBE1256:
	.loc 1 25 3 view .LVU184
	xorps	xmm2, XMMWORD PTR .LC7[rip]
.LBB1257:
.LBB1249:
.LBB1077:
.LBB1069:
	.loc 5 135 3 view .LVU185
	subss	xmm4, xmm0
.LVL57:
.LBB1048:
.LBI1042:
	.loc 3 356 1 is_stmt 1 view .LVU186
.LBB1044:
	.loc 3 357 3 view .LVU187
.LBE1044:
.LBE1048:
.LBB1049:
.LBB1050:
	.loc 3 357 18 is_stmt 0 view .LVU188
	pxor	xmm0, xmm0
.LVL58:
	.loc 3 357 18 view .LVU189
.LBE1050:
.LBE1049:
.LBB1054:
.LBB1045:
	movaps	xmm1, xmm4
.LBE1045:
.LBE1054:
.LBB1055:
.LBB1051:
	movss	DWORD PTR 20[rsp], xmm4
.LBE1051:
.LBE1055:
.LBB1056:
.LBB1046:
	mulss	xmm1, xmm5
.LBE1046:
.LBE1056:
.LBB1057:
.LBB1052:
	unpcklps	xmm1, xmm4
	movq	xmm1, xmm1
	mulps	xmm1, xmm0
.LBE1052:
.LBE1057:
.LBE1069:
.LBE1077:
.LBE1249:
.LBE1257:
	.loc 1 25 3 view .LVU190
	movaps	xmm0, xmm2
	movaps	XMMWORD PTR [rsp], xmm1
	movss	DWORD PTR 16[rsp], xmm1
.LVL59:
.LBB1258:
.LBB1250:
.LBB1078:
.LBB1070:
.LBB1058:
.LBB1047:
	.loc 3 358 3 is_stmt 1 view .LVU191
	.loc 3 359 3 view .LVU192
	.loc 3 359 3 is_stmt 0 view .LVU193
.LBE1047:
.LBE1058:
	.loc 5 136 3 is_stmt 1 view .LVU194
	call	sinf@PLT
.LVL60:
.LBB1059:
.LBB1060:
	.loc 3 357 18 is_stmt 0 view .LVU195
	pxor	xmm5, xmm5
.LBE1060:
.LBE1059:
	.loc 5 142 11 view .LVU196
	movaps	xmm1, XMMWORD PTR [rsp]
	movss	xmm3, DWORD PTR 24[rsp]
.LBB1064:
.LBB1061:
	.loc 3 357 18 view .LVU197
	mulss	xmm5, xmm0
.LBE1061:
.LBE1064:
	.loc 5 136 3 view .LVU198
	movaps	xmm2, xmm0
.LVL61:
.LBB1065:
.LBI1059:
	.loc 3 356 1 is_stmt 1 view .LVU199
.LBB1062:
	.loc 3 357 3 view .LVU200
.LBE1062:
.LBE1065:
	.loc 5 142 51 is_stmt 0 view .LVU201
	movss	xmm6, DWORD PTR 16[rsp]
	.loc 5 143 31 view .LVU202
	movss	xmm4, DWORD PTR 20[rsp]
	.loc 5 142 11 view .LVU203
	movaps	xmm0, xmm3
.LVL62:
	.loc 5 142 11 view .LVU204
	movq	xmm7, xmm1
	.loc 5 142 31 view .LVU205
	shufps	xmm1, xmm1, 0xe5
	.loc 5 146 31 view .LVU206
	mov	DWORD PTR 76[rsp], 0x00000000
	.loc 5 143 31 view .LVU207
	addss	xmm3, xmm4
	.loc 5 146 21 view .LVU208
	mov	DWORD PTR 60[rsp], 0x00000000
	.loc 5 146 11 view .LVU209
	mov	DWORD PTR 44[rsp], 0x00000000
	.loc 5 142 11 view .LVU210
	unpcklps	xmm0, xmm5
	.loc 5 142 31 view .LVU211
	subss	xmm1, xmm5
	.loc 5 142 51 view .LVU212
	movaps	xmm5, xmm2
	.loc 5 143 31 view .LVU213
	movss	DWORD PTR 52[rsp], xmm3
	.loc 5 142 11 view .LVU214
	movq	xmm0, xmm0
	.loc 5 142 51 view .LVU215
	addss	xmm5, xmm6
	.loc 5 144 11 view .LVU216
	subss	xmm6, xmm2
	.loc 5 142 11 view .LVU217
	addps	xmm0, xmm7
.LBB1066:
.LBB1063:
	.loc 3 358 3 is_stmt 1 view .LVU218
.LVL63:
	.loc 3 359 3 view .LVU219
	.loc 3 359 3 is_stmt 0 view .LVU220
.LBE1063:
.LBE1066:
	.loc 5 138 3 is_stmt 1 view .LVU221
.LBB1067:
.LBI1049:
	.loc 3 356 1 view .LVU222
.LBB1053:
	.loc 3 357 3 view .LVU223
	.loc 3 358 3 view .LVU224
	.loc 3 359 3 view .LVU225
	.loc 3 359 3 is_stmt 0 view .LVU226
.LBE1053:
.LBE1067:
	.loc 5 139 3 is_stmt 1 view .LVU227
	.loc 5 140 3 view .LVU228
	.loc 5 142 3 view .LVU229
	.loc 5 142 23 view .LVU230
	.loc 5 143 51 is_stmt 0 view .LVU231
	movss	DWORD PTR 68[rsp], xmm1
	.loc 5 142 51 view .LVU232
	movss	DWORD PTR 64[rsp], xmm5
.LBE1070:
.LBE1078:
.LBB1079:
.LBB1080:
.LBB1081:
.LBB1082:
.LBB1083:
.LBB1084:
	.file 6 "/usr/lib/gcc/x86_64-pc-linux-gnu/14.1.1/include/xmmintrin.h"
	.loc 6 204 10 view .LVU233
	movaps	xmm5, XMMWORD PTR .LC9[rip]
.LBE1084:
.LBE1083:
.LBE1082:
.LBE1081:
.LBE1080:
.LBE1079:
.LBB1234:
.LBB1071:
	.loc 5 144 51 view .LVU234
	movss	DWORD PTR 72[rsp], xmm0
.LBE1071:
.LBE1234:
.LBB1235:
.LBB1225:
.LBB1216:
.LBB1093:
.LBB1094:
	.loc 6 933 10 view .LVU235
	movaps	xmm3, XMMWORD PTR 64[rsp]
.LBE1094:
.LBE1093:
.LBE1216:
.LBE1225:
.LBE1235:
.LBB1236:
.LBB1072:
	.loc 5 144 11 view .LVU236
	movss	DWORD PTR 40[rsp], xmm6
	.loc 5 144 31 view .LVU237
	movaps	xmm6, xmm0
.LBE1072:
.LBE1236:
.LBB1237:
.LBB1226:
.LBB1217:
.LBB1096:
.LBB1097:
	.loc 6 752 19 view .LVU238
	movaps	xmm7, xmm3
.LBE1097:
.LBE1096:
.LBB1100:
.LBB1101:
	movaps	xmm4, xmm3
.LBE1101:
.LBE1100:
.LBE1217:
.LBE1226:
.LBE1237:
.LBB1238:
.LBB1073:
	.loc 5 144 31 view .LVU239
	shufps	xmm6, xmm6, 0xe5
	movss	DWORD PTR 56[rsp], xmm6
.LBE1073:
.LBE1238:
.LBB1239:
.LBB1227:
.LBB1218:
.LBB1104:
.LBB1105:
	.loc 6 204 10 view .LVU240
	movss	xmm6, DWORD PTR .LC8[rip]
.LBE1105:
.LBE1104:
.LBB1108:
.LBB1098:
	.loc 6 752 19 view .LVU241
	shufps	xmm7, xmm3, 0
.LBE1098:
.LBE1108:
.LBB1109:
.LBB1102:
	shufps	xmm4, xmm3, 85
.LBE1102:
.LBE1109:
.LBB1110:
.LBB1111:
	shufps	xmm3, xmm3, 170
.LBE1111:
.LBE1110:
.LBB1113:
.LBB1087:
.LBB1085:
	.loc 6 204 10 view .LVU242
	mulps	xmm4, xmm5
.LBE1085:
.LBE1087:
.LBE1113:
.LBE1218:
.LBE1227:
.LBE1239:
.LBB1240:
.LBB1074:
	.loc 5 142 11 view .LVU243
	movlps	QWORD PTR 32[rsp], xmm0
.LBE1074:
.LBE1240:
.LBE1250:
.LBE1258:
.LBB1259:
.LBB1260:
.LBB1261:
.LBB1262:
	.loc 6 933 10 view .LVU244
	movaps	xmm0, XMMWORD PTR [rbx]
.LBE1262:
.LBE1261:
.LBE1260:
.LBE1259:
.LBB1324:
.LBB1251:
.LBB1241:
.LBB1228:
.LBB1219:
.LBB1114:
.LBB1106:
	.loc 6 204 10 view .LVU245
	mulps	xmm7, xmm6
.LBE1106:
.LBE1114:
.LBE1219:
.LBE1228:
.LBE1241:
.LBB1242:
.LBB1075:
	.loc 5 142 31 view .LVU246
	movss	DWORD PTR 48[rsp], xmm1
	.loc 5 142 43 is_stmt 1 view .LVU247
	.loc 5 143 3 view .LVU248
	.loc 5 143 23 view .LVU249
	.loc 5 143 43 view .LVU250
	.loc 5 144 3 view .LVU251
	.loc 5 144 23 view .LVU252
	.loc 5 144 43 view .LVU253
	.loc 5 146 3 view .LVU254
	.loc 5 147 3 view .LVU255
.LVL64:
	.loc 5 147 3 is_stmt 0 view .LVU256
.LBE1075:
.LBE1242:
	.loc 4 239 3 is_stmt 1 view .LVU257
.LBB1243:
.LBI1079:
	.file 7 "/home/randompigyt/Hogxel-Engine/external/cglm/include/cglm/affine-mat.h"
	.loc 7 116 1 view .LVU258
	.loc 7 120 3 view .LVU259
.LBB1229:
.LBI1080:
	.file 8 "/home/randompigyt/Hogxel-Engine/external/cglm/include/cglm/simd/sse2/affine.h"
	.loc 8 55 1 view .LVU260
.LBB1220:
	.loc 8 58 3 view .LVU261
	.loc 8 60 3 view .LVU262
	.loc 8 61 3 view .LVU263
.LBB1115:
.LBI1115:
	.loc 6 931 1 view .LVU264
.LBB1116:
	.loc 6 933 3 view .LVU265
.LBE1116:
.LBE1115:
.LBB1118:
.LBB1119:
	.loc 6 933 10 is_stmt 0 view .LVU266
	movaps	xmm2, XMMWORD PTR 48[rsp]
.LVL65:
	.loc 6 933 10 view .LVU267
.LBE1119:
.LBE1118:
.LBB1121:
.LBB1117:
	movaps	xmm1, XMMWORD PTR 32[rsp]
.LVL66:
	.loc 6 933 10 view .LVU268
.LBE1117:
.LBE1121:
	.loc 8 62 3 is_stmt 1 view .LVU269
.LBB1122:
.LBI1118:
	.loc 6 931 1 view .LVU270
.LBB1120:
	.loc 6 933 3 view .LVU271
	.loc 6 933 3 is_stmt 0 view .LVU272
.LBE1120:
.LBE1122:
	.loc 8 63 3 is_stmt 1 view .LVU273
.LBB1123:
.LBI1093:
	.loc 6 931 1 view .LVU274
.LBB1095:
	.loc 6 933 3 view .LVU275
	.loc 6 933 3 is_stmt 0 view .LVU276
.LBE1095:
.LBE1123:
	.loc 8 65 3 is_stmt 1 view .LVU277
.LBB1124:
.LBI1124:
	.loc 6 750 1 view .LVU278
.LBB1125:
	.loc 6 752 3 view .LVU279
	.loc 6 752 3 is_stmt 0 view .LVU280
.LBE1125:
.LBE1124:
.LBB1127:
.LBI1127:
	.loc 6 202 1 is_stmt 1 view .LVU281
.LBB1128:
	.loc 6 204 3 view .LVU282
	.loc 6 204 3 is_stmt 0 view .LVU283
.LBE1128:
.LBE1127:
	.loc 8 66 3 is_stmt 1 view .LVU284
.LBB1130:
.LBI1130:
	.loc 6 750 1 view .LVU285
.LBB1131:
	.loc 6 752 3 view .LVU286
	.loc 6 752 3 is_stmt 0 view .LVU287
.LBE1131:
.LBE1130:
.LBB1133:
.LBI1133:
	.loc 6 202 1 is_stmt 1 view .LVU288
.LBB1134:
	.loc 6 204 3 view .LVU289
	.loc 6 204 3 is_stmt 0 view .LVU290
.LBE1134:
.LBE1133:
	.loc 8 67 3 is_stmt 1 view .LVU291
.LBB1136:
.LBI1096:
	.loc 6 750 1 view .LVU292
.LBB1099:
	.loc 6 752 3 view .LVU293
	.loc 6 752 3 is_stmt 0 view .LVU294
.LBE1099:
.LBE1136:
.LBB1137:
.LBI1104:
	.loc 6 202 1 is_stmt 1 view .LVU295
.LBB1107:
	.loc 6 204 3 view .LVU296
	.loc 6 204 3 is_stmt 0 view .LVU297
.LBE1107:
.LBE1137:
	.loc 8 69 3 is_stmt 1 view .LVU298
	.loc 8 70 3 view .LVU299
.LBB1138:
.LBI1138:
	.loc 6 750 1 view .LVU300
.LBB1139:
	.loc 6 752 3 view .LVU301
	.loc 6 752 3 is_stmt 0 view .LVU302
.LBE1139:
.LBE1138:
.LBB1141:
.LBI1141:
	.file 9 "/home/randompigyt/Hogxel-Engine/external/cglm/include/cglm/simd/x86.h"
	.loc 9 267 1 is_stmt 1 view .LVU303
	.loc 9 271 3 view .LVU304
.LBB1142:
.LBI1142:
	.loc 6 202 1 view .LVU305
.LBB1143:
	.loc 6 204 3 view .LVU306
	.loc 6 204 3 is_stmt 0 view .LVU307
.LBE1143:
.LBE1142:
.LBB1145:
.LBI1145:
	.loc 6 190 1 is_stmt 1 view .LVU308
.LBB1146:
	.loc 6 192 3 view .LVU309
	.loc 6 192 3 is_stmt 0 view .LVU310
.LBE1146:
.LBE1145:
.LBE1141:
	.loc 8 71 3 is_stmt 1 view .LVU311
.LBB1150:
.LBI1150:
	.loc 6 750 1 view .LVU312
.LBB1151:
	.loc 6 752 3 view .LVU313
	.loc 6 752 3 is_stmt 0 view .LVU314
.LBE1151:
.LBE1150:
.LBB1153:
.LBI1153:
	.loc 9 267 1 is_stmt 1 view .LVU315
	.loc 9 271 3 view .LVU316
.LBB1154:
.LBI1154:
	.loc 6 202 1 view .LVU317
.LBB1155:
	.loc 6 204 3 view .LVU318
	.loc 6 204 3 is_stmt 0 view .LVU319
.LBE1155:
.LBE1154:
.LBB1157:
.LBI1157:
	.loc 6 190 1 is_stmt 1 view .LVU320
.LBB1158:
	.loc 6 192 3 view .LVU321
	.loc 6 192 3 is_stmt 0 view .LVU322
.LBE1158:
.LBE1157:
.LBE1153:
	.loc 8 72 3 is_stmt 1 view .LVU323
.LBB1162:
.LBI1100:
	.loc 6 750 1 view .LVU324
.LBB1103:
	.loc 6 752 3 view .LVU325
	.loc 6 752 3 is_stmt 0 view .LVU326
.LBE1103:
.LBE1162:
.LBB1163:
.LBI1082:
	.loc 9 267 1 is_stmt 1 view .LVU327
	.loc 9 271 3 view .LVU328
.LBB1088:
.LBI1083:
	.loc 6 202 1 view .LVU329
.LBB1086:
	.loc 6 204 3 view .LVU330
	.loc 6 204 3 is_stmt 0 view .LVU331
.LBE1086:
.LBE1088:
.LBB1089:
.LBI1089:
	.loc 6 190 1 is_stmt 1 view .LVU332
.LBB1090:
	.loc 6 192 3 view .LVU333
	.loc 6 192 3 is_stmt 0 view .LVU334
.LBE1090:
.LBE1089:
.LBE1163:
	.loc 8 74 3 is_stmt 1 view .LVU335
	.loc 8 75 3 view .LVU336
.LBB1164:
.LBI1164:
	.loc 6 750 1 view .LVU337
.LBB1165:
	.loc 6 752 3 view .LVU338
	.loc 6 752 3 is_stmt 0 view .LVU339
.LBE1165:
.LBE1164:
.LBB1167:
.LBI1167:
	.loc 9 267 1 is_stmt 1 view .LVU340
	.loc 9 271 3 view .LVU341
.LBB1168:
.LBI1168:
	.loc 6 202 1 view .LVU342
.LBB1169:
	.loc 6 204 3 view .LVU343
	.loc 6 204 3 is_stmt 0 view .LVU344
.LBE1169:
.LBE1168:
.LBB1171:
.LBI1171:
	.loc 6 190 1 is_stmt 1 view .LVU345
.LBB1172:
	.loc 6 192 3 view .LVU346
	.loc 6 192 3 is_stmt 0 view .LVU347
.LBE1172:
.LBE1171:
.LBE1167:
	.loc 8 76 3 is_stmt 1 view .LVU348
.LBB1176:
.LBI1176:
	.loc 6 750 1 view .LVU349
.LBB1177:
	.loc 6 752 3 view .LVU350
	.loc 6 752 3 is_stmt 0 view .LVU351
.LBE1177:
.LBE1176:
.LBB1179:
.LBI1179:
	.loc 9 267 1 is_stmt 1 view .LVU352
	.loc 9 271 3 view .LVU353
.LBB1180:
.LBI1180:
	.loc 6 202 1 view .LVU354
.LBB1181:
	.loc 6 204 3 view .LVU355
	.loc 6 204 3 is_stmt 0 view .LVU356
.LBE1181:
.LBE1180:
.LBB1183:
.LBI1183:
	.loc 6 190 1 is_stmt 1 view .LVU357
.LBB1184:
	.loc 6 192 3 view .LVU358
	.loc 6 192 3 is_stmt 0 view .LVU359
.LBE1184:
.LBE1183:
.LBE1179:
	.loc 8 77 3 is_stmt 1 view .LVU360
.LBB1188:
.LBI1110:
	.loc 6 750 1 view .LVU361
.LBB1112:
	.loc 6 752 3 view .LVU362
	.loc 6 752 3 is_stmt 0 view .LVU363
.LBE1112:
.LBE1188:
.LBB1189:
.LBI1189:
	.loc 9 267 1 is_stmt 1 view .LVU364
	.loc 9 271 3 view .LVU365
.LBB1190:
.LBI1190:
	.loc 6 202 1 view .LVU366
.LBB1191:
	.loc 6 204 3 view .LVU367
	.loc 6 204 3 is_stmt 0 view .LVU368
.LBE1191:
.LBE1190:
.LBB1193:
.LBI1193:
	.loc 6 190 1 is_stmt 1 view .LVU369
.LBB1194:
	.loc 6 192 3 view .LVU370
	.loc 6 192 3 is_stmt 0 view .LVU371
.LBE1194:
.LBE1193:
.LBE1189:
	.loc 8 79 3 is_stmt 1 view .LVU372
	.loc 8 80 3 view .LVU373
	.loc 8 81 3 view .LVU374
	.loc 8 82 3 view .LVU375
	.loc 8 82 3 is_stmt 0 view .LVU376
.LBE1220:
.LBE1229:
.LBE1243:
.LBE1251:
.LBE1324:
	.loc 1 27 3 is_stmt 1 view .LVU377
	.loc 1 28 3 view .LVU378
.LBB1325:
.LBI1259:
	.file 10 "/home/randompigyt/Hogxel-Engine/external/cglm/include/cglm/simd/sse2/mat4.h"
	.loc 10 91 1 view .LVU379
.LBB1319:
	.loc 10 92 3 view .LVU380
	.loc 10 94 3 view .LVU381
	.loc 10 95 3 view .LVU382
	.loc 10 96 3 view .LVU383
	.loc 10 97 3 view .LVU384
	.loc 10 99 3 view .LVU385
.LBB1264:
.LBI1261:
	.loc 6 931 1 view .LVU386
.LBB1263:
	.loc 6 933 3 view .LVU387
	.loc 6 933 3 is_stmt 0 view .LVU388
.LBE1263:
.LBE1264:
	.loc 10 100 3 is_stmt 1 view .LVU389
.LBB1265:
.LBI1265:
	.loc 6 750 1 view .LVU390
.LBB1266:
	.loc 6 752 3 view .LVU391
	.loc 6 752 3 is_stmt 0 view .LVU392
.LBE1266:
.LBE1265:
	.loc 10 101 3 is_stmt 1 view .LVU393
.LBB1268:
.LBI1268:
	.loc 6 750 1 view .LVU394
.LBB1269:
	.loc 6 752 3 view .LVU395
	.loc 6 752 3 is_stmt 0 view .LVU396
.LBE1269:
.LBE1268:
	.loc 10 102 3 is_stmt 1 view .LVU397
.LBB1271:
.LBI1271:
	.loc 6 750 1 view .LVU398
.LBB1272:
	.loc 6 752 3 view .LVU399
	.loc 6 752 3 is_stmt 0 view .LVU400
.LBE1272:
.LBE1271:
	.loc 10 103 3 is_stmt 1 view .LVU401
.LBB1274:
.LBI1274:
	.loc 6 750 1 view .LVU402
.LBB1275:
	.loc 6 752 3 view .LVU403
	.loc 6 752 3 is_stmt 0 view .LVU404
.LBE1275:
.LBE1274:
	.loc 10 105 3 is_stmt 1 view .LVU405
.LBB1277:
.LBI1277:
	.loc 6 202 1 view .LVU406
.LBB1278:
	.loc 6 204 3 view .LVU407
	.loc 6 204 3 is_stmt 0 view .LVU408
.LBE1278:
.LBE1277:
	.loc 10 106 3 is_stmt 1 view .LVU409
.LBB1280:
.LBI1280:
	.loc 9 267 1 view .LVU410
	.loc 9 271 3 view .LVU411
.LBB1281:
.LBI1281:
	.loc 6 202 1 view .LVU412
.LBB1282:
	.loc 6 204 3 view .LVU413
.LBE1282:
.LBE1281:
.LBB1284:
.LBI1284:
	.loc 6 190 1 view .LVU414
.LBB1285:
	.loc 6 192 3 view .LVU415
.LBE1285:
.LBE1284:
.LBE1280:
	.loc 10 107 3 view .LVU416
.LBB1289:
.LBI1289:
	.loc 9 267 1 view .LVU417
	.loc 9 271 3 view .LVU418
.LBB1290:
.LBI1290:
	.loc 6 202 1 view .LVU419
.LBB1291:
	.loc 6 204 3 view .LVU420
.LBE1291:
.LBE1290:
.LBB1293:
.LBI1293:
	.loc 6 190 1 view .LVU421
.LBB1294:
	.loc 6 192 3 view .LVU422
.LBE1294:
.LBE1293:
.LBE1289:
	.loc 10 108 3 view .LVU423
.LBB1300:
.LBI1300:
	.loc 9 267 1 view .LVU424
	.loc 9 271 3 view .LVU425
.LBB1301:
.LBI1301:
	.loc 6 202 1 view .LVU426
.LBB1302:
	.loc 6 204 3 view .LVU427
.LBE1302:
.LBE1301:
.LBB1304:
.LBI1304:
	.loc 6 190 1 view .LVU428
.LBB1305:
	.loc 6 192 3 view .LVU429
.LBE1305:
.LBE1304:
.LBE1300:
	.loc 10 110 3 view .LVU430
	.loc 10 110 3 is_stmt 0 view .LVU431
.LBE1319:
.LBE1325:
	.loc 1 30 3 is_stmt 1 view .LVU432
.LBB1326:
.LBI1326:
	.file 11 "/home/randompigyt/Hogxel-Engine/external/cglm/include/cglm/vec4.h"
	.loc 11 148 1 view .LVU433
	.loc 11 152 3 view .LVU434
.LBB1327:
.LBI1327:
	.loc 6 980 1 view .LVU435
.LBB1328:
	.loc 6 982 3 view .LVU436
.LBE1328:
.LBE1327:
.LBE1326:
.LBB1331:
.LBB1252:
.LBB1244:
.LBB1230:
.LBB1221:
.LBB1198:
.LBB1152:
	.loc 6 752 19 is_stmt 0 view .LVU437
	movaps	xmm8, xmm2
	shufps	xmm8, xmm2, 85
.LBE1152:
.LBE1198:
.LBB1199:
.LBB1160:
.LBB1156:
	.loc 6 204 10 view .LVU438
	mulps	xmm8, xmm5
.LBE1156:
.LBE1160:
.LBE1199:
.LBB1200:
.LBB1092:
.LBB1091:
	.loc 6 192 10 view .LVU439
	addps	xmm7, xmm4
.LBE1091:
.LBE1092:
.LBE1200:
.LBB1201:
.LBB1196:
.LBB1192:
	.loc 6 204 10 view .LVU440
	movaps	xmm4, XMMWORD PTR .LC10[rip]
	mulps	xmm3, xmm4
.LBE1192:
.LBE1196:
.LBB1197:
.LBB1195:
	.loc 6 192 10 view .LVU441
	addps	xmm3, xmm7
.LBE1195:
.LBE1197:
.LBE1201:
.LBE1221:
.LBE1230:
.LBE1244:
.LBE1252:
.LBE1331:
.LBB1332:
.LBB1320:
.LBB1309:
.LBB1273:
	.loc 6 752 19 view .LVU442
	movaps	xmm7, xmm0
	shufps	xmm7, xmm0, 170
.LBE1273:
.LBE1309:
.LBB1310:
.LBB1287:
.LBB1283:
	.loc 6 204 10 view .LVU443
	mulps	xmm3, xmm7
.LBE1283:
.LBE1287:
.LBE1310:
.LBB1311:
.LBB1276:
	.loc 6 752 19 view .LVU444
	movaps	xmm7, xmm0
	shufps	xmm7, xmm0, 255
.LBE1276:
.LBE1311:
.LBB1312:
.LBB1279:
	.loc 6 204 10 view .LVU445
	mulps	xmm7, XMMWORD PTR .LC11[rip]
.LBE1279:
.LBE1312:
.LBB1313:
.LBB1288:
.LBB1286:
	.loc 6 192 10 view .LVU446
	addps	xmm7, xmm3
.LBE1286:
.LBE1288:
.LBE1313:
.LBE1320:
.LBE1332:
.LBB1333:
.LBB1253:
.LBB1245:
.LBB1231:
.LBB1222:
.LBB1202:
.LBB1132:
	.loc 6 752 19 view .LVU447
	movaps	xmm3, xmm2
	shufps	xmm3, xmm2, 0
.LBE1132:
.LBE1202:
.LBB1203:
.LBB1135:
	.loc 6 204 10 view .LVU448
	mulps	xmm3, xmm6
.LBE1135:
.LBE1203:
.LBB1204:
.LBB1178:
	.loc 6 752 19 view .LVU449
	shufps	xmm2, xmm2, 170
.LVL67:
	.loc 6 752 19 view .LVU450
.LBE1178:
.LBE1204:
.LBB1205:
.LBB1186:
.LBB1182:
	.loc 6 204 10 view .LVU451
	mulps	xmm2, xmm4
.LBE1182:
.LBE1186:
.LBE1205:
.LBB1206:
.LBB1161:
.LBB1159:
	.loc 6 192 10 view .LVU452
	addps	xmm3, xmm8
.LBE1159:
.LBE1161:
.LBE1206:
.LBB1207:
.LBB1187:
.LBB1185:
	addps	xmm2, xmm3
.LBE1185:
.LBE1187:
.LBE1207:
.LBE1222:
.LBE1231:
.LBE1245:
.LBE1253:
.LBE1333:
.LBB1334:
.LBB1321:
.LBB1314:
.LBB1270:
	.loc 6 752 19 view .LVU453
	movaps	xmm3, xmm0
	shufps	xmm3, xmm0, 85
.LBE1270:
.LBE1314:
.LBB1315:
.LBB1267:
	shufps	xmm0, xmm0, 0
.LVL68:
	.loc 6 752 19 view .LVU454
.LBE1267:
.LBE1315:
.LBB1316:
.LBB1297:
.LBB1292:
	.loc 6 204 10 view .LVU455
	mulps	xmm2, xmm3
.LBE1292:
.LBE1297:
.LBB1298:
.LBB1295:
	.loc 6 192 10 view .LVU456
	addps	xmm7, xmm2
.LBE1295:
.LBE1298:
.LBE1316:
.LBE1321:
.LBE1334:
.LBB1335:
.LBB1254:
.LBB1246:
.LBB1232:
.LBB1223:
.LBB1208:
.LBB1126:
	.loc 6 752 19 view .LVU457
	movaps	xmm2, xmm1
	shufps	xmm2, xmm1, 0
.LBE1126:
.LBE1208:
.LBB1209:
.LBB1129:
	.loc 6 204 10 view .LVU458
	mulps	xmm2, xmm6
.LBE1129:
.LBE1209:
.LBB1210:
.LBB1140:
	.loc 6 752 19 view .LVU459
	movaps	xmm6, xmm1
	shufps	xmm6, xmm1, 85
.LBE1140:
.LBE1210:
.LBB1211:
.LBB1148:
.LBB1144:
	.loc 6 204 10 view .LVU460
	mulps	xmm5, xmm6
.LBE1144:
.LBE1148:
.LBE1211:
.LBB1212:
.LBB1166:
	.loc 6 752 19 view .LVU461
	shufps	xmm1, xmm1, 170
.LVL69:
	.loc 6 752 19 view .LVU462
.LBE1166:
.LBE1212:
.LBB1213:
.LBB1174:
.LBB1170:
	.loc 6 204 10 view .LVU463
	mulps	xmm1, xmm4
.LBE1170:
.LBE1174:
.LBE1213:
.LBE1223:
.LBE1232:
.LBE1246:
.LBE1254:
.LBE1335:
.LBB1336:
.LBB1322:
.LBB1317:
.LBB1299:
.LBB1296:
	.loc 6 192 10 view .LVU464
	movaps	xmm3, xmm7
.LBE1296:
.LBE1299:
.LBE1317:
.LBE1322:
.LBE1336:
.LBB1337:
.LBB1255:
.LBB1247:
.LBB1233:
.LBB1224:
.LBB1214:
.LBB1149:
.LBB1147:
	addps	xmm2, xmm5
.LBE1147:
.LBE1149:
.LBE1214:
.LBB1215:
.LBB1175:
.LBB1173:
	addps	xmm1, xmm2
.LBE1173:
.LBE1175:
.LBE1215:
.LBE1224:
.LBE1233:
.LBE1247:
.LBE1255:
.LBE1337:
.LBB1338:
.LBB1323:
.LBB1318:
.LBB1307:
.LBB1303:
	.loc 6 204 10 view .LVU465
	mulps	xmm0, xmm1
.LBE1303:
.LBE1307:
.LBB1308:
.LBB1306:
	.loc 6 192 10 view .LVU466
	addps	xmm3, xmm0
.LBE1306:
.LBE1308:
.LBE1318:
.LBE1323:
.LBE1338:
.LBB1339:
.LBB1330:
.LBB1329:
	.loc 6 982 18 view .LVU467
	movaps	XMMWORD PTR [rbx], xmm3
.LVL70:
	.loc 6 982 18 view .LVU468
.LBE1329:
.LBE1330:
.LBE1339:
	.loc 1 31 1 view .LVU469
	mov	rax, QWORD PTR 104[rsp]
	sub	rax, QWORD PTR fs:40
	jne	.L49
	add	rsp, 112
	.cfi_remember_state
	.cfi_def_cfa_offset 16
	pop	rbx
	.cfi_def_cfa_offset 8
.LVL71:
	.loc 1 31 1 view .LVU470
	ret
.LVL72:
.L49:
	.cfi_restore_state
	.loc 1 31 1 view .LVU471
	call	__stack_chk_fail@PLT
.LVL73:
	.cfi_endproc
.LFE1314:
	.size	get_relative_coords.constprop.0, .-get_relative_coords.constprop.0
	.section	.rodata.str1.8
	.align 8
.LC12:
	.string	"(&palette)->items != NULL && \"Failed to allocate memory\""
	.align 8
.LC15:
	.string	"(palette).items != NULL && \"Cannot index null array\""
	.align 8
.LC16:
	.string	"(palette.count - 1) < (palette).count && \"Invalid index\""
	.align 8
.LC17:
	.string	"(i) < (palette).count && \"Invalid index\""
	.align 8
.LC18:
	.string	"(scene->walls).items != NULL && \"Cannot index null array\""
	.align 8
.LC20:
	.string	"proj_plane_size[0] > 0 && proj_plane_size[1] > 0"
	.text
	.p2align 4
	.globl	dsr_render_walls
	.type	dsr_render_walls, @function
dsr_render_walls:
.LVL74:
.LFB1309:
	.loc 1 410 78 is_stmt 1 view -0
	.cfi_startproc
	.loc 1 410 78 is_stmt 0 view .LVU473
	push	r15
	.cfi_def_cfa_offset 16
	.cfi_offset 15, -16
	mov	r15, rdi
	push	r14
	.cfi_def_cfa_offset 24
	.cfi_offset 14, -24
	push	r13
	.cfi_def_cfa_offset 32
	.cfi_offset 13, -32
	push	r12
	.cfi_def_cfa_offset 40
	.cfi_offset 12, -40
	mov	r12, rsi
	push	rbp
	.cfi_def_cfa_offset 48
	.cfi_offset 6, -48
.LBB1497:
	.loc 1 412 16 view .LVU474
	xor	ebp, ebp
.LBE1497:
	.loc 1 410 78 view .LVU475
	push	rbx
	.cfi_def_cfa_offset 56
	.cfi_offset 3, -56
	sub	rsp, 456
	.cfi_def_cfa_offset 512
	.loc 1 410 78 view .LVU476
	mov	QWORD PTR 16[rsp], rdx
	mov	QWORD PTR 176[rsp], rcx
	.loc 1 411 3 view .LVU477
	mov	rdi, QWORD PTR fs:40
	mov	QWORD PTR 440[rsp], rdi
	mov	edi, -1647854507
.LVL75:
	.loc 1 411 3 view .LVU478
	call	srand@PLT
.LVL76:
	.loc 1 412 3 is_stmt 1 view .LVU479
.LBB1498:
	.loc 1 412 8 view .LVU480
.L51:
	.loc 1 412 25 discriminator 1 view .LVU481
	.loc 1 412 27 is_stmt 0 discriminator 1 view .LVU482
	call	rand@PLT
.LVL77:
	.loc 1 412 34 discriminator 1 view .LVU483
	movsx	rdx, eax
	mov	ecx, eax
	imul	rdx, rdx, 1374389535
	sar	ecx, 31
	sar	rdx, 37
	sub	edx, ecx
	imul	edx, edx, 100
	sub	eax, edx
	.loc 1 412 25 discriminator 1 view .LVU484
	cmp	eax, ebp
	jle	.L137
	.loc 1 413 5 is_stmt 1 view .LVU485
	call	rand@PLT
.LVL78:
	.loc 1 412 42 discriminator 3 view .LVU486
	add	ebp, 1
.LVL79:
	.loc 1 412 42 is_stmt 0 discriminator 3 view .LVU487
	jmp	.L51
.LVL80:
	.p2align 4,,10
	.p2align 3
.L137:
	.loc 1 412 42 discriminator 3 view .LVU488
.LBE1498:
.LBB1499:
	.loc 1 416 26 is_stmt 1 discriminator 1 view .LVU489
	cmp	QWORD PTR 8[r12], 0
	je	.L111
	mov	r14d, 1
.LBE1499:
	.loc 1 415 29 is_stmt 0 view .LVU490
	xor	ebp, ebp
.LVL81:
	.loc 1 415 29 view .LVU491
	xor	r13d, r13d
	jmp	.L59
.LVL82:
	.p2align 4,,10
	.p2align 3
.L141:
.LBB1504:
	.loc 1 417 5 discriminator 6 view .LVU492
	lea	rsi, 0[0+rbp*8]
	.loc 1 417 5 discriminator 3 view .LVU493
	add	rbp, rbp
.LVL83:
.L55:
	.loc 1 417 5 is_stmt 1 view .LVU494
	.loc 1 417 5 is_stmt 0 discriminator 6 view .LVU495
	mov	rdi, r13
	call	realloc@PLT
.LVL84:
	.loc 1 417 5 discriminator 6 view .LVU496
	mov	r13, rax
.LVL85:
	.loc 1 417 5 is_stmt 1 discriminator 1 view .LVU497
	test	rax, rax
	je	.L138
	.loc 1 417 5 discriminator 2 view .LVU498
.LVL86:
	.loc 1 417 5 view .LVU499
	.loc 1 418 5 view .LVU500
	.loc 1 419 19 is_stmt 0 view .LVU501
	call	rand@PLT
.LVL87:
	.loc 1 419 12 discriminator 1 view .LVU502
	pxor	xmm0, xmm0
	.loc 1 419 26 discriminator 1 view .LVU503
	mov	DWORD PTR 24[rsp], 0x30000000
	.loc 1 419 12 discriminator 1 view .LVU504
	cvtsi2ss	xmm0, eax
	.loc 1 419 26 discriminator 1 view .LVU505
	mulss	xmm0, DWORD PTR .LC13[rip]
	.loc 1 419 45 discriminator 1 view .LVU506
	mov	DWORD PTR 12[rsp], 0x437f0000
	mulss	xmm0, DWORD PTR .LC14[rip]
.LBB1500:
	.loc 1 418 5 is_stmt 1 view .LVU507
	.loc 1 418 5 view .LVU508
	test	r14, r14
	je	.L139
.L57:
	.loc 1 418 5 view .LVU509
.LBE1500:
	.loc 1 419 9 is_stmt 0 view .LVU510
	cvttss2si	eax, xmm0
.LBB1501:
	.loc 1 418 5 view .LVU511
	lea	rbx, -4[r13+r14*4]
.LBE1501:
	.loc 1 419 9 view .LVU512
	mov	BYTE PTR [rbx], al
	.loc 1 420 5 is_stmt 1 view .LVU513
	.loc 1 421 19 is_stmt 0 view .LVU514
	call	rand@PLT
.LVL88:
.LBE1504:
	.loc 1 420 5 is_stmt 1 view .LVU515
	.loc 1 420 5 view .LVU516
	.loc 1 420 5 view .LVU517
.LBB1505:
	.loc 1 421 12 is_stmt 0 discriminator 1 view .LVU518
	pxor	xmm0, xmm0
	cvtsi2ss	xmm0, eax
	.loc 1 421 26 discriminator 1 view .LVU519
	mulss	xmm0, DWORD PTR 24[rsp]
	.loc 1 421 45 discriminator 1 view .LVU520
	mulss	xmm0, DWORD PTR 12[rsp]
	.loc 1 421 9 view .LVU521
	cvttss2si	eax, xmm0
	mov	BYTE PTR 1[rbx], al
	.loc 1 422 5 is_stmt 1 view .LVU522
	.loc 1 423 19 is_stmt 0 view .LVU523
	call	rand@PLT
.LVL89:
.LBE1505:
	.loc 1 422 5 is_stmt 1 view .LVU524
	.loc 1 422 5 view .LVU525
	.loc 1 422 5 view .LVU526
.LBB1506:
	.loc 1 423 12 is_stmt 0 discriminator 1 view .LVU527
	pxor	xmm0, xmm0
	.loc 1 416 40 discriminator 1 view .LVU528
	mov	rsi, QWORD PTR 8[r12]
	.loc 1 424 42 view .LVU529
	mov	BYTE PTR 3[rbx], -1
	.loc 1 423 12 discriminator 1 view .LVU530
	cvtsi2ss	xmm0, eax
	.loc 1 423 26 discriminator 1 view .LVU531
	mulss	xmm0, DWORD PTR 24[rsp]
	.loc 1 416 26 discriminator 1 view .LVU532
	lea	rdx, 1[r14]
	.loc 1 423 45 discriminator 1 view .LVU533
	mulss	xmm0, DWORD PTR 12[rsp]
	.loc 1 423 9 view .LVU534
	cvttss2si	eax, xmm0
	mov	BYTE PTR 2[rbx], al
	.loc 1 424 5 is_stmt 1 view .LVU535
.LBE1506:
	.loc 1 424 5 view .LVU536
	.loc 1 424 5 view .LVU537
	.loc 1 424 5 view .LVU538
.LBB1507:
	.loc 1 416 49 discriminator 2 view .LVU539
.LVL90:
	.loc 1 416 26 discriminator 1 view .LVU540
	mov	eax, r14d
	cmp	rax, rsi
	jnb	.L140
	.loc 1 416 26 is_stmt 0 discriminator 1 view .LVU541
	mov	r14, rdx
.LVL91:
.L59:
	.loc 1 417 5 is_stmt 1 view .LVU542
	.loc 1 417 5 view .LVU543
	lea	rax, -1[r14]
.LVL92:
	.loc 1 417 5 is_stmt 0 view .LVU544
	cmp	rax, rbp
	jb	.L54
	.loc 1 417 5 is_stmt 1 discriminator 1 view .LVU545
	test	rbp, rbp
	jne	.L141
	mov	esi, 32
	.loc 1 417 5 is_stmt 0 discriminator 4 view .LVU546
	mov	ebp, 8
.LVL93:
	.loc 1 417 5 discriminator 4 view .LVU547
	jmp	.L55
.LVL94:
	.p2align 4,,10
	.p2align 3
.L54:
	.loc 1 417 5 is_stmt 1 discriminator 2 view .LVU548
	.loc 1 417 5 view .LVU549
	.loc 1 418 5 view .LVU550
	.loc 1 419 19 is_stmt 0 view .LVU551
	call	rand@PLT
.LVL95:
	.loc 1 419 12 discriminator 1 view .LVU552
	pxor	xmm0, xmm0
	.loc 1 419 26 discriminator 1 view .LVU553
	mov	DWORD PTR 24[rsp], 0x30000000
	.loc 1 419 12 discriminator 1 view .LVU554
	cvtsi2ss	xmm0, eax
	.loc 1 419 26 discriminator 1 view .LVU555
	mulss	xmm0, DWORD PTR .LC13[rip]
	.loc 1 419 45 discriminator 1 view .LVU556
	mov	DWORD PTR 12[rsp], 0x437f0000
	mulss	xmm0, DWORD PTR .LC14[rip]
.LBB1502:
	.loc 1 418 5 is_stmt 1 view .LVU557
	test	r13, r13
	jne	.L57
	.loc 1 418 5 discriminator 1 view .LVU558
	lea	rcx, __PRETTY_FUNCTION__.2[rip]
	mov	edx, 418
	lea	rsi, .LC0[rip]
	lea	rdi, .LC15[rip]
	call	__assert_fail@PLT
.LVL96:
	.p2align 4,,10
	.p2align 3
.L140:
	.loc 1 418 5 is_stmt 0 discriminator 1 view .LVU559
.LBE1502:
.LBE1507:
.LBB1508:
	.loc 1 427 26 discriminator 1 view .LVU560
	mov	QWORD PTR 104[rsp], r13
	movss	xmm2, DWORD PTR 12[rsp]
.LVL97:
	.loc 1 427 26 is_stmt 1 discriminator 1 view .LVU561
	mov	QWORD PTR 160[rsp], r14
	test	rsi, rsi
	je	.L53
.LBB1509:
	.loc 1 432 52 is_stmt 0 view .LVU562
	mov	rax, QWORD PTR 104[rsp]
.LBB1510:
	.loc 1 430 31 view .LVU563
	mov	rbx, QWORD PTR [r12]
	.loc 1 430 31 view .LVU564
.LBE1510:
.LBB1511:
	.loc 1 432 35 is_stmt 1 view .LVU565
.LBE1511:
	.loc 1 432 52 is_stmt 0 view .LVU566
	movzx	ecx, BYTE PTR [rax]
	.loc 1 432 74 view .LVU567
	movzx	r13d, BYTE PTR 1[rax]
.LVL98:
	.loc 1 433 52 view .LVU568
	movzx	eax, BYTE PTR 2[rax]
	.loc 1 432 52 view .LVU569
	mov	BYTE PTR 48[rsp], cl
.LBE1509:
.LBE1508:
	.loc 1 432 57 is_stmt 1 view .LVU570
	.loc 1 432 57 view .LVU571
	.loc 1 432 57 view .LVU572
	.loc 1 433 35 view .LVU573
	.loc 1 433 35 view .LVU574
	.loc 1 433 35 view .LVU575
.LBB1759:
.LBB1754:
	.loc 1 433 52 is_stmt 0 view .LVU576
	mov	BYTE PTR 52[rsp], al
.LBB1512:
	.loc 1 430 31 is_stmt 1 view .LVU577
	test	rbx, rbx
	je	.L142
	lea	rcx, 224[rsp]
	mov	QWORD PTR 144[rsp], rsi
	xor	eax, eax
	mov	QWORD PTR 120[rsp], rcx
	lea	rcx, 192[rsp]
	mov	QWORD PTR 136[rsp], rcx
	lea	rcx, 240[rsp]
	mov	QWORD PTR 128[rsp], rcx
	lea	rcx, 208[rsp]
	mov	DWORD PTR 184[rsp], 0
	mov	QWORD PTR 112[rsp], rcx
	mov	QWORD PTR 152[rsp], rbx
	mov	rbx, QWORD PTR 16[rsp]
	movss	DWORD PTR 188[rsp], xmm2
.LVL99:
	.p2align 4,,10
	.p2align 3
.L63:
	.loc 1 430 31 view .LVU578
	.loc 1 430 31 view .LVU579
	mov	rdi, QWORD PTR 152[rsp]
	lea	rax, [rax+rax*2]
.LBE1512:
.LBB1513:
.LBB1514:
	.loc 1 290 8 is_stmt 0 view .LVU580
	pxor	xmm0, xmm0
	mov	QWORD PTR 208[rsp], 0
	movaps	XMMWORD PTR 192[rsp], xmm0
	.loc 1 295 3 view .LVU581
	mov	rdx, QWORD PTR 120[rsp]
	mov	rsi, QWORD PTR 136[rsp]
.LBE1514:
.LBE1513:
.LBB1746:
	.loc 1 430 31 view .LVU582
	lea	r14, [rdi+rax*8]
.LVL100:
	.loc 1 430 31 view .LVU583
.LBE1746:
.LBB1747:
.LBI1513:
	.loc 1 283 13 is_stmt 1 view .LVU584
.LBB1743:
	.loc 1 287 3 view .LVU585
	.loc 1 288 3 view .LVU586
	.loc 1 290 3 view .LVU587
	.loc 1 291 3 view .LVU588
.LBB1515:
.LBI1515:
	.loc 1 9 20 view .LVU589
.LBB1516:
	.loc 1 10 3 view .LVU590
.LBE1516:
.LBE1515:
	.loc 1 295 3 is_stmt 0 view .LVU591
	mov	rdi, rbx
	.loc 1 294 8 view .LVU592
	movaps	XMMWORD PTR 224[rsp], xmm0
.LBB1520:
.LBB1517:
	.loc 1 10 19 view .LVU593
	movss	xmm1, DWORD PTR [r14]
.LBE1517:
.LBE1520:
	.loc 1 294 8 view .LVU594
	movaps	XMMWORD PTR 240[rsp], xmm0
.LBB1521:
.LBB1518:
	.loc 1 13 19 view .LVU595
	mov	DWORD PTR 204[rsp], 0x3f800000
	.loc 1 10 19 view .LVU596
	movss	DWORD PTR 192[rsp], xmm1
	.loc 1 11 3 is_stmt 1 view .LVU597
	.loc 1 12 3 view .LVU598
	.loc 1 12 19 is_stmt 0 view .LVU599
	movss	xmm1, DWORD PTR 4[r14]
.LBE1518:
.LBE1521:
.LBB1522:
.LBB1523:
	.loc 1 13 19 view .LVU600
	mov	DWORD PTR 220[rsp], 0x3f800000
.LBE1523:
.LBE1522:
.LBB1525:
.LBB1519:
	.loc 1 12 19 view .LVU601
	movss	DWORD PTR 200[rsp], xmm1
	.loc 1 13 3 is_stmt 1 view .LVU602
.LVL101:
	.loc 1 13 3 is_stmt 0 view .LVU603
.LBE1519:
.LBE1525:
	.loc 1 292 3 is_stmt 1 view .LVU604
.LBB1526:
.LBI1522:
	.loc 1 9 20 view .LVU605
.LBB1524:
	.loc 1 10 3 view .LVU606
	.loc 1 10 19 is_stmt 0 view .LVU607
	movss	xmm1, DWORD PTR 8[r14]
	movss	DWORD PTR 208[rsp], xmm1
	.loc 1 11 3 is_stmt 1 view .LVU608
	.loc 1 12 3 view .LVU609
	.loc 1 12 19 is_stmt 0 view .LVU610
	movss	xmm1, DWORD PTR 12[r14]
	movss	DWORD PTR 216[rsp], xmm1
	.loc 1 13 3 is_stmt 1 view .LVU611
.LVL102:
	.loc 1 13 3 is_stmt 0 view .LVU612
.LBE1524:
.LBE1526:
	.loc 1 294 3 is_stmt 1 view .LVU613
	.loc 1 295 3 view .LVU614
	call	get_relative_coords.constprop.0
.LVL103:
	.loc 1 296 3 view .LVU615
	mov	rdx, QWORD PTR 128[rsp]
	mov	rsi, QWORD PTR 112[rsp]
	mov	rdi, rbx
	call	get_relative_coords.constprop.0
.LVL104:
	.loc 1 298 3 view .LVU616
	.loc 1 298 37 is_stmt 0 view .LVU617
	movss	xmm5, DWORD PTR 8[rbx]
	.loc 1 298 25 view .LVU618
	movss	xmm0, DWORD PTR 232[rsp]
	.loc 1 298 6 view .LVU619
	comiss	xmm5, xmm0
	jbe	.L64
	.loc 1 298 59 discriminator 1 view .LVU620
	comiss	xmm5, DWORD PTR 248[rsp]
	ja	.L74
.L64:
	.loc 1 302 10 is_stmt 1 view .LVU621
	.loc 1 302 44 is_stmt 0 view .LVU622
	movss	xmm3, DWORD PTR 12[rbx]
	.loc 1 302 13 view .LVU623
	comiss	xmm0, xmm3
	jbe	.L67
	.loc 1 302 65 discriminator 1 view .LVU624
	movss	xmm0, DWORD PTR 248[rsp]
	comiss	xmm0, xmm3
	ja	.L74
.L67:
	.loc 1 307 3 is_stmt 1 view .LVU625
	.loc 1 308 3 view .LVU626
.LVL105:
.LBB1527:
.LBI1527:
	.loc 1 101 13 view .LVU627
.LBB1528:
	.loc 1 104 3 view .LVU628
.LBB1529:
.LBI1529:
	.loc 11 148 1 view .LVU629
	.loc 11 152 3 view .LVU630
.LBB1530:
.LBI1530:
	.loc 6 931 1 view .LVU631
.LBB1531:
	.loc 6 933 3 view .LVU632
	.loc 6 933 10 is_stmt 0 view .LVU633
	movaps	xmm0, XMMWORD PTR 224[rsp]
.LVL106:
	.loc 6 933 10 view .LVU634
.LBE1531:
.LBE1530:
.LBB1532:
.LBI1532:
	.loc 6 980 1 is_stmt 1 view .LVU635
.LBB1533:
	.loc 6 982 3 view .LVU636
.LBE1533:
.LBE1532:
.LBE1529:
.LBB1536:
.LBB1537:
.LBB1538:
	.loc 6 933 10 is_stmt 0 view .LVU637
	movaps	xmm1, XMMWORD PTR 240[rsp]
	movaps	xmm4, xmm0
.LBE1538:
.LBE1537:
.LBE1536:
.LBB1543:
.LBB1535:
.LBB1534:
	.loc 6 982 18 view .LVU638
	movaps	XMMWORD PTR 256[rsp], xmm0
.LVL107:
	.loc 6 982 18 view .LVU639
.LBE1534:
.LBE1535:
.LBE1543:
	.loc 1 105 3 is_stmt 1 view .LVU640
.LBB1544:
.LBI1536:
	.loc 11 148 1 view .LVU641
	.loc 11 152 3 view .LVU642
.LBB1540:
.LBI1537:
	.loc 6 931 1 view .LVU643
.LBB1539:
	.loc 6 933 3 view .LVU644
	.loc 6 933 3 is_stmt 0 view .LVU645
.LBE1539:
.LBE1540:
.LBB1541:
.LBI1541:
	.loc 6 980 1 is_stmt 1 view .LVU646
.LBB1542:
	.loc 6 982 3 view .LVU647
	unpckhps	xmm4, xmm0
	.loc 6 982 18 is_stmt 0 view .LVU648
	movaps	XMMWORD PTR 272[rsp], xmm1
.LVL108:
	.loc 6 982 18 view .LVU649
.LBE1542:
.LBE1541:
.LBE1544:
	.loc 1 112 3 is_stmt 1 view .LVU650
	.loc 1 112 6 is_stmt 0 view .LVU651
	comiss	xmm5, xmm4
	jbe	.L133
.LBB1545:
	.loc 1 113 5 is_stmt 1 view .LVU652
	.loc 1 114 5 view .LVU653
.LVL109:
.LBB1546:
.LBI1546:
	.loc 11 390 1 view .LVU654
	.loc 11 394 3 view .LVU655
.LBB1547:
.LBI1547:
	.loc 6 196 1 view .LVU656
.LBB1548:
	.loc 6 198 3 view .LVU657
	.loc 6 198 10 is_stmt 0 view .LVU658
	movaps	xmm6, xmm0
.LBE1548:
.LBE1547:
.LBE1546:
.LBB1551:
.LBB1552:
	.loc 1 53 18 view .LVU659
	movss	xmm0, DWORD PTR .LC3[rip]
.LVL110:
	.loc 1 53 18 view .LVU660
.LBE1552:
.LBE1551:
.LBB1554:
.LBB1550:
.LBB1549:
	.loc 6 198 10 view .LVU661
	subps	xmm6, xmm1
.LVL111:
	.loc 6 198 10 view .LVU662
.LBE1549:
.LBE1550:
.LBE1554:
	.loc 1 116 5 is_stmt 1 view .LVU663
	movaps	xmm7, xmm6
	unpckhps	xmm7, xmm6
.LVL112:
.LBB1555:
.LBI1551:
	.loc 1 52 20 view .LVU664
.LBB1553:
	.loc 1 53 3 view .LVU665
	.loc 1 53 18 is_stmt 0 view .LVU666
	comiss	xmm0, xmm7
	jbe	.L71
	.loc 1 53 18 discriminator 1 view .LVU667
	comiss	xmm7, DWORD PTR .LC4[rip]
	ja	.L74
.L71:
.LVL113:
	.loc 1 53 18 discriminator 1 view .LVU668
.LBE1553:
.LBE1555:
	.loc 1 120 5 is_stmt 1 view .LVU669
	.loc 1 122 5 view .LVU670
	.loc 1 122 19 is_stmt 0 view .LVU671
	movss	DWORD PTR 264[rsp], xmm5
	.loc 1 123 5 is_stmt 1 view .LVU672
	.loc 1 120 44 is_stmt 0 view .LVU673
	movaps	xmm4, xmm1
	movaps	xmm0, xmm5
	unpckhps	xmm4, xmm1
	subss	xmm0, xmm4
	.loc 1 120 11 view .LVU674
	movaps	xmm4, xmm0
	.loc 1 123 44 view .LVU675
	movaps	xmm0, xmm6
	.loc 1 120 11 view .LVU676
	divss	xmm4, xmm7
	.loc 1 123 44 view .LVU677
	mulss	xmm0, xmm4
.LBE1545:
	movaps	xmm4, xmm5
.LBB1556:
	.loc 1 123 35 view .LVU678
	addss	xmm1, xmm0
.LVL114:
	.loc 1 123 19 view .LVU679
	movss	DWORD PTR 256[rsp], xmm1
.LVL115:
.L75:
	.loc 1 123 19 view .LVU680
.LBE1556:
	.loc 1 143 3 is_stmt 1 view .LVU681
	.loc 1 143 6 is_stmt 0 view .LVU682
	comiss	xmm4, xmm3
	jbe	.L134
.L143:
.LBB1557:
	.loc 1 144 5 is_stmt 1 view .LVU683
	.loc 1 145 5 view .LVU684
.LVL116:
.LBB1558:
.LBI1558:
	.loc 11 390 1 view .LVU685
	.loc 11 394 3 view .LVU686
.LBB1559:
.LBI1559:
	.loc 6 931 1 view .LVU687
.LBB1560:
	.loc 6 933 3 view .LVU688
	.loc 6 933 3 is_stmt 0 view .LVU689
.LBE1560:
.LBE1559:
.LBB1561:
.LBI1561:
	.loc 6 931 1 is_stmt 1 view .LVU690
.LBB1562:
	.loc 6 933 3 view .LVU691
	.loc 6 933 3 is_stmt 0 view .LVU692
.LBE1562:
.LBE1561:
.LBB1563:
.LBI1563:
	.loc 6 196 1 is_stmt 1 view .LVU693
.LBB1564:
	.loc 6 198 3 view .LVU694
	.loc 6 198 10 is_stmt 0 view .LVU695
	movaps	xmm0, XMMWORD PTR 256[rsp]
	subps	xmm0, XMMWORD PTR 272[rsp]
.LVL117:
	.loc 6 198 10 view .LVU696
.LBE1564:
.LBE1563:
.LBE1558:
	.loc 1 147 5 is_stmt 1 view .LVU697
.LBB1565:
.LBB1566:
	.loc 1 53 18 is_stmt 0 view .LVU698
	movss	xmm4, DWORD PTR .LC3[rip]
	movaps	xmm1, xmm0
	unpckhps	xmm1, xmm0
.LVL118:
	.loc 1 53 18 view .LVU699
.LBE1566:
.LBI1565:
	.loc 1 52 20 is_stmt 1 view .LVU700
.LBB1567:
	.loc 1 53 3 view .LVU701
	.loc 1 53 18 is_stmt 0 view .LVU702
	comiss	xmm4, xmm1
	jbe	.L83
	.loc 1 53 18 discriminator 1 view .LVU703
	comiss	xmm1, DWORD PTR .LC4[rip]
	ja	.L74
.L83:
.LVL119:
	.loc 1 53 18 discriminator 1 view .LVU704
.LBE1567:
.LBE1565:
	.loc 1 151 5 is_stmt 1 view .LVU705
	.loc 1 151 55 is_stmt 0 view .LVU706
	movss	xmm4, DWORD PTR 280[rsp]
	.loc 1 151 43 view .LVU707
	movaps	xmm6, xmm3
	.loc 1 154 31 view .LVU708
	movss	xmm7, DWORD PTR 272[rsp]
	.loc 1 153 19 view .LVU709
	movss	DWORD PTR 264[rsp], xmm3
	.loc 1 151 43 view .LVU710
	subss	xmm6, xmm4
	.loc 1 151 55 view .LVU711
	movss	DWORD PTR 16[rsp], xmm4
.LVL120:
	.loc 1 153 5 is_stmt 1 view .LVU712
	.loc 1 154 5 view .LVU713
.LBE1557:
	movaps	xmm4, xmm3
.LVL121:
.LBB1568:
	.loc 1 154 31 is_stmt 0 view .LVU714
	movss	DWORD PTR 24[rsp], xmm7
	.loc 1 151 11 view .LVU715
	divss	xmm6, xmm1
.LVL122:
	.loc 1 154 44 view .LVU716
	mulss	xmm6, xmm0
.LVL123:
	.loc 1 154 35 view .LVU717
	addss	xmm6, xmm7
	.loc 1 154 19 view .LVU718
	movss	DWORD PTR 256[rsp], xmm6
.LVL124:
.L85:
	.loc 1 154 19 view .LVU719
.LBE1568:
	.loc 1 173 5 view .LVU720
	pxor	xmm0, xmm0
	pxor	xmm1, xmm1
	movss	DWORD PTR 44[rsp], xmm3
	cvtss2sd	xmm1, xmm4
	movss	DWORD PTR 40[rsp], xmm6
	cvtss2sd	xmm0, xmm6
	movss	DWORD PTR 28[rsp], xmm4
	movss	DWORD PTR 32[rsp], xmm5
	.loc 1 172 3 is_stmt 1 view .LVU721
	.loc 1 173 5 is_stmt 0 view .LVU722
	call	atan2@PLT
.LVL125:
	.loc 1 173 5 discriminator 1 view .LVU723
	pxor	xmm5, xmm5
	.loc 1 174 5 view .LVU724
	pxor	xmm1, xmm1
	.loc 1 173 5 discriminator 1 view .LVU725
	cvtsd2ss	xmm5, xmm0
	.loc 1 174 5 view .LVU726
	pxor	xmm0, xmm0
	.loc 1 173 5 discriminator 1 view .LVU727
	movss	DWORD PTR 12[rsp], xmm5
.LVL126:
	.loc 1 174 5 view .LVU728
	cvtss2sd	xmm1, DWORD PTR 16[rsp]
	cvtss2sd	xmm0, DWORD PTR 24[rsp]
	call	atan2@PLT
.LVL127:
	.loc 1 174 5 discriminator 1 view .LVU729
	pxor	xmm1, xmm1
	.loc 1 177 6 view .LVU730
	movss	xmm5, DWORD PTR 12[rsp]
	.loc 1 174 5 discriminator 1 view .LVU731
	cvtsd2ss	xmm1, xmm0
.LVL128:
	.loc 1 177 3 is_stmt 1 view .LVU732
	.loc 1 177 32 is_stmt 0 view .LVU733
	movss	xmm0, DWORD PTR .LC19[rip]
	mulss	xmm0, DWORD PTR [rbx]
	.loc 1 177 6 view .LVU734
	movss	xmm4, DWORD PTR 28[rsp]
	movss	xmm6, DWORD PTR 40[rsp]
	movss	xmm3, DWORD PTR 44[rsp]
	comiss	xmm5, xmm0
	movss	xmm5, DWORD PTR 32[rsp]
	jbe	.L89
	.loc 1 177 39 discriminator 1 view .LVU735
	comiss	xmm1, xmm0
	ja	.L74
.L89:
	movaps	xmm7, xmm0
	xorps	xmm7, XMMWORD PTR .LC7[rip]
	.loc 1 177 74 discriminator 3 view .LVU736
	comiss	xmm7, DWORD PTR 12[rsp]
	jbe	.L91
	.loc 1 178 40 view .LVU737
	comiss	xmm7, xmm1
	ja	.L74
.L91:
	.loc 1 178 40 view .LVU738
	movss	DWORD PTR 56[rsp], xmm6
	.loc 1 186 34 view .LVU739
	cvtss2sd	xmm0, xmm0
	.loc 1 196 5 view .LVU740
	lea	r12, 320[rsp]
	lea	rbp, 352[rsp]
	movss	DWORD PTR 44[rsp], xmm4
	movss	DWORD PTR 32[rsp], xmm1
	movss	DWORD PTR 40[rsp], xmm5
	.loc 1 182 3 is_stmt 1 view .LVU741
.LVL129:
	.loc 1 183 3 view .LVU742
	.loc 1 185 3 view .LVU743
	movss	DWORD PTR 28[rsp], xmm3
	.loc 1 186 34 is_stmt 0 view .LVU744
	call	tan@PLT
.LVL130:
	.loc 1 186 11 view .LVU745
	movss	xmm3, DWORD PTR 28[rsp]
	.loc 1 196 5 view .LVU746
	mov	rdx, r12
	mov	rsi, rbp
	.loc 1 186 34 view .LVU747
	movapd	xmm7, xmm0
	.loc 1 186 11 view .LVU748
	pxor	xmm0, xmm0
	.loc 1 196 5 view .LVU749
	lea	rdi, 256[rsp]
.LVL131:
	.loc 1 188 8 view .LVU750
	mov	DWORD PTR 352[rsp], 0x00000000
	movss	DWORD PTR 376[rsp], xmm3
	.loc 1 186 11 view .LVU751
	cvtss2sd	xmm0, xmm3
	.loc 1 186 32 discriminator 1 view .LVU752
	mulsd	xmm0, xmm7
	.loc 1 188 8 view .LVU753
	movss	DWORD PTR 408[rsp], xmm3
	mov	DWORD PTR 360[rsp], 0x00000000
	mov	DWORD PTR 384[rsp], 0x00000000
	mov	DWORD PTR 392[rsp], 0x00000000
	.loc 1 185 9 view .LVU754
	cvtsd2ss	xmm0, xmm0
.LVL132:
	.loc 1 188 3 is_stmt 1 view .LVU755
	.loc 1 195 3 view .LVU756
	.loc 1 188 8 is_stmt 0 view .LVU757
	movss	DWORD PTR 368[rsp], xmm0
	.loc 1 192 7 view .LVU758
	xorps	xmm0, XMMWORD PTR .LC7[rip]
.LVL133:
	.loc 1 188 8 view .LVU759
	movss	DWORD PTR 400[rsp], xmm0
	.loc 1 196 5 view .LVU760
	pxor	xmm0, xmm0
	movaps	XMMWORD PTR 320[rsp], xmm0
	movaps	XMMWORD PTR 336[rsp], xmm0
	call	intersect_line_segments.constprop.0
.LVL134:
	.loc 1 198 5 view .LVU761
	lea	rdx, 336[rsp]
	lea	rsi, 384[rsp]
	.loc 1 196 5 view .LVU762
	movaps	xmm10, XMMWORD PTR 320[rsp]
.LVL135:
	.loc 1 196 5 view .LVU763
	mov	r9d, eax
.LVL136:
	.loc 1 197 3 is_stmt 1 view .LVU764
	.loc 1 198 5 is_stmt 0 view .LVU765
	call	intersect_line_segments.constprop.0
.LVL137:
	.loc 1 209 6 view .LVU766
	test	r9b, r9b
	.loc 1 198 5 view .LVU767
	movaps	xmm0, XMMWORD PTR 336[rsp]
.LVL138:
	.loc 1 204 3 is_stmt 1 view .LVU768
	.loc 1 205 3 view .LVU769
	.loc 1 209 3 view .LVU770
	.loc 1 209 6 is_stmt 0 view .LVU771
	movss	xmm3, DWORD PTR 28[rsp]
	movss	xmm5, DWORD PTR 40[rsp]
	movss	xmm1, DWORD PTR 32[rsp]
	movss	xmm4, DWORD PTR 44[rsp]
	movss	xmm6, DWORD PTR 56[rsp]
	je	.L93
	.loc 1 210 5 is_stmt 1 view .LVU772
	.loc 1 210 8 is_stmt 0 view .LVU773
	comiss	xmm1, DWORD PTR 12[rsp]
	jb	.L135
	.loc 1 211 7 is_stmt 1 view .LVU774
.LVL139:
.LBB1569:
.LBI1569:
	.loc 11 148 1 view .LVU775
	.loc 11 152 3 view .LVU776
.LBB1570:
.LBI1570:
	.loc 6 980 1 view .LVU777
.LBB1571:
	.loc 6 982 3 view .LVU778
	.loc 6 982 18 is_stmt 0 view .LVU779
	movaps	XMMWORD PTR 272[rsp], xmm10
.LVL140:
	.loc 6 982 18 view .LVU780
.LBE1571:
.LBE1570:
.LBE1569:
	.loc 1 220 3 is_stmt 1 view .LVU781
	movss	DWORD PTR 24[rsp], xmm10
	unpckhps	xmm10, xmm10
.LVL141:
	.loc 1 220 3 is_stmt 0 view .LVU782
	movss	DWORD PTR 16[rsp], xmm10
	.loc 1 220 6 view .LVU783
	test	al, al
	je	.L100
.LVL142:
.L96:
	.loc 1 222 7 is_stmt 1 view .LVU784
.LBB1572:
.LBI1572:
	.loc 11 148 1 view .LVU785
	.loc 11 152 3 view .LVU786
.LBB1573:
.LBI1573:
	.loc 6 980 1 view .LVU787
.LBB1574:
	.loc 6 982 3 view .LVU788
	.loc 6 982 18 is_stmt 0 view .LVU789
	movaps	XMMWORD PTR 256[rsp], xmm0
.LVL143:
	.loc 6 982 18 view .LVU790
	movaps	xmm6, xmm0
	unpckhps	xmm0, xmm0
	movaps	xmm4, xmm0
.L100:
.LBE1574:
.LBE1573:
.LBE1572:
.LBE1528:
.LBE1527:
	.loc 1 313 3 is_stmt 1 view .LVU791
	.loc 1 314 3 view .LVU792
.LVL144:
.LBB1602:
.LBI1602:
	.loc 1 33 21 view .LVU793
.LBB1603:
	.loc 1 36 3 view .LVU794
.LBE1603:
.LBE1602:
.LBB1606:
.LBB1607:
.LBB1608:
	.loc 1 43 9 is_stmt 0 view .LVU795
	movss	xmm1, DWORD PTR 20[rbx]
	.loc 1 45 30 view .LVU796
	movss	xmm7, DWORD PTR 16[r14]
.LBE1608:
.LBE1607:
.LBE1606:
.LBB1627:
.LBB1604:
	.loc 1 36 29 view .LVU797
	mulss	xmm6, xmm5
	lea	r14, 288[rsp]
.LVL145:
	.loc 1 36 29 view .LVU798
.LBE1604:
.LBE1627:
.LBB1628:
.LBB1629:
	movss	xmm0, DWORD PTR 24[rsp]
	.loc 1 36 59 view .LVU799
	movss	xmm2, DWORD PTR 16[rsp]
.LBE1629:
.LBE1628:
.LBB1633:
.LBB1623:
.LBB1619:
	.loc 1 45 30 view .LVU800
	subss	xmm7, xmm1
	.loc 1 46 18 view .LVU801
	xorps	xmm1, XMMWORD PTR .LC7[rip]
.LBE1619:
.LBE1623:
.LBE1633:
.LBB1634:
.LBB1635:
.LBB1636:
	.loc 1 273 3 view .LVU802
	mov	rax, QWORD PTR 176[rsp]
.LBE1636:
.LBE1635:
.LBE1634:
.LBB1647:
.LBB1630:
	.loc 1 36 29 view .LVU803
	mulss	xmm0, xmm5
.LBE1630:
.LBE1647:
.LBB1648:
.LBB1624:
.LBB1620:
.LBB1609:
.LBB1610:
	.loc 2 314 18 view .LVU804
	movaps	xmm9, xmm1
	divss	xmm9, xmm4
	.loc 2 313 18 view .LVU805
	movaps	xmm8, xmm7
	divss	xmm8, xmm4
.LBE1610:
.LBE1609:
.LBB1612:
.LBB1613:
	.loc 2 265 18 view .LVU806
	mulss	xmm9, xmm5
.LBE1613:
.LBE1612:
.LBE1620:
.LBE1624:
.LBE1648:
.LBB1649:
.LBB1650:
.LBB1651:
.LBB1652:
.LBB1653:
	.loc 2 314 18 view .LVU807
	divss	xmm1, xmm2
.LBE1653:
.LBE1652:
.LBE1651:
.LBE1650:
.LBE1649:
.LBB1670:
.LBB1625:
.LBB1621:
.LBB1616:
.LBB1614:
	.loc 2 264 18 view .LVU808
	mulss	xmm8, xmm5
.LBE1614:
.LBE1616:
.LBE1621:
.LBE1625:
.LBE1670:
.LBB1671:
.LBB1667:
.LBB1664:
.LBB1656:
.LBB1654:
	.loc 2 313 18 view .LVU809
	divss	xmm7, xmm2
.LBE1654:
.LBE1656:
.LBB1657:
.LBB1658:
	.loc 2 265 18 view .LVU810
	mulss	xmm1, xmm5
.LBE1658:
.LBE1657:
.LBE1664:
.LBE1667:
.LBE1671:
.LBB1672:
.LBB1605:
	.loc 1 36 59 view .LVU811
	divss	xmm6, xmm4
.LVL146:
	.loc 1 36 59 view .LVU812
.LBE1605:
.LBE1672:
.LBB1673:
.LBI1628:
	.loc 1 33 21 is_stmt 1 view .LVU813
.LBB1631:
	.loc 1 36 3 view .LVU814
.LBE1631:
.LBE1673:
.LBB1674:
.LBB1668:
.LBB1665:
.LBB1661:
.LBB1659:
	.loc 2 264 18 is_stmt 0 view .LVU815
	mulss	xmm5, xmm7
.LBE1659:
.LBE1661:
.LBE1665:
.LBE1668:
.LBE1674:
.LBB1675:
.LBB1632:
	.loc 1 36 59 view .LVU816
	divss	xmm0, xmm2
.LVL147:
	.loc 1 36 59 view .LVU817
.LBE1632:
.LBE1675:
.LBB1676:
	.loc 1 320 5 is_stmt 1 view .LVU818
	.loc 1 321 5 view .LVU819
.LBB1626:
.LBI1607:
	.loc 1 39 20 view .LVU820
.LBB1622:
	.loc 1 42 3 view .LVU821
	.loc 1 43 3 view .LVU822
	.loc 1 45 3 view .LVU823
	.loc 1 46 3 view .LVU824
	.loc 1 48 3 view .LVU825
.LBB1617:
.LBI1609:
	.loc 2 312 1 view .LVU826
.LBB1611:
	.loc 2 313 3 view .LVU827
	.loc 2 314 3 view .LVU828
	.loc 2 314 3 is_stmt 0 view .LVU829
.LBE1611:
.LBE1617:
	.loc 1 49 3 is_stmt 1 view .LVU830
.LBB1618:
.LBI1612:
	.loc 2 263 1 view .LVU831
.LBB1615:
	.loc 2 264 3 view .LVU832
	.loc 2 265 3 view .LVU833
	.loc 2 265 3 is_stmt 0 view .LVU834
.LBE1615:
.LBE1618:
.LBE1622:
.LBE1626:
	.loc 1 323 5 is_stmt 1 view .LVU835
	.loc 1 324 5 view .LVU836
	.loc 1 326 5 view .LVU837
	.loc 1 327 5 view .LVU838
	.loc 1 327 5 is_stmt 0 view .LVU839
.LBE1676:
.LBB1677:
	.loc 1 331 5 is_stmt 1 view .LVU840
	.loc 1 332 5 view .LVU841
.LBB1669:
.LBI1650:
	.loc 1 39 20 view .LVU842
.LBB1666:
	.loc 1 42 3 view .LVU843
	.loc 1 43 3 view .LVU844
	.loc 1 45 3 view .LVU845
	.loc 1 46 3 view .LVU846
	.loc 1 48 3 view .LVU847
.LBB1662:
.LBI1652:
	.loc 2 312 1 view .LVU848
.LBB1655:
	.loc 2 313 3 view .LVU849
	.loc 2 314 3 view .LVU850
	.loc 2 314 3 is_stmt 0 view .LVU851
.LBE1655:
.LBE1662:
	.loc 1 49 3 is_stmt 1 view .LVU852
.LBB1663:
.LBI1657:
	.loc 2 263 1 view .LVU853
.LBB1660:
	.loc 2 264 3 view .LVU854
	.loc 2 265 3 view .LVU855
	.loc 2 265 3 is_stmt 0 view .LVU856
.LBE1660:
.LBE1663:
.LBE1666:
.LBE1669:
	.loc 1 334 5 is_stmt 1 view .LVU857
	.loc 1 335 5 view .LVU858
	.loc 1 337 5 view .LVU859
	.loc 1 338 5 view .LVU860
.LBE1677:
.LBB1678:
	.loc 1 323 21 is_stmt 0 view .LVU861
	movaps	xmm10, xmm6
	unpcklps	xmm6, xmm8
.LVL148:
	.loc 1 323 21 view .LVU862
	unpcklps	xmm10, xmm9
.LVL149:
	.loc 1 323 21 view .LVU863
	movlhps	xmm6, xmm10
	movaps	XMMWORD PTR 288[rsp], xmm6
	movaps	xmm6, xmm0
	unpcklps	xmm0, xmm1
.LVL150:
	.loc 1 323 21 view .LVU864
	unpcklps	xmm6, xmm5
.LVL151:
	.loc 1 323 21 view .LVU865
	movlhps	xmm0, xmm6
.LBE1678:
.LBB1679:
.LBB1642:
.LBB1637:
	.loc 1 273 3 view .LVU866
	movss	xmm6, DWORD PTR [rax]
.LBE1637:
.LBE1642:
.LBE1679:
.LBB1680:
	.loc 1 323 21 view .LVU867
	movaps	XMMWORD PTR 304[rsp], xmm0
.LVL152:
	.loc 1 323 21 view .LVU868
.LBE1680:
	.loc 1 342 3 is_stmt 1 view .LVU869
	.loc 1 346 3 view .LVU870
	.loc 1 346 11 is_stmt 0 view .LVU871
	pxor	xmm0, xmm0
	movaps	XMMWORD PTR 352[rsp], xmm0
	movaps	XMMWORD PTR 368[rsp], xmm0
	.loc 1 348 3 is_stmt 1 view .LVU872
.LBB1681:
	.loc 1 348 8 view .LVU873
.LVL153:
	.loc 1 348 26 discriminator 1 view .LVU874
	.loc 1 349 5 view .LVU875
.LBB1643:
.LBI1635:
	.loc 1 270 20 view .LVU876
.LBB1638:
	.loc 1 273 3 view .LVU877
	pxor	xmm0, xmm0
	comiss	xmm6, xmm0
	jbe	.L101
	.loc 1 273 3 is_stmt 0 discriminator 1 view .LVU878
	mov	QWORD PTR 32[rsp], rbx
.LVL154:
	.loc 1 273 3 discriminator 1 view .LVU879
	mov	rbx, r15
.LVL155:
	.loc 1 273 3 discriminator 1 view .LVU880
	mov	r15, r14
.LVL156:
	.loc 1 273 3 discriminator 1 view .LVU881
	mov	r14, rax
.LVL157:
	.loc 1 273 3 discriminator 1 view .LVU882
	movss	DWORD PTR 28[rsp], xmm3
	movss	DWORD PTR 40[rsp], xmm4
.LVL158:
	.loc 1 273 3 discriminator 1 view .LVU883
	movss	DWORD PTR 24[rsp], xmm6
.LVL159:
.L104:
	.loc 1 273 3 discriminator 1 view .LVU884
	movss	xmm5, DWORD PTR 4[r14]
	pxor	xmm3, xmm3
	comiss	xmm5, xmm3
	jbe	.L101
	.loc 1 276 75 view .LVU885
	mov	eax, DWORD PTR [rbx]
	.loc 1 276 57 view .LVU886
	pxor	xmm1, xmm1
	.loc 1 276 27 view .LVU887
	movss	xmm0, DWORD PTR [r15]
.LBE1638:
.LBE1643:
	.loc 1 348 26 discriminator 1 view .LVU888
	add	r15, 8
.LBB1644:
.LBB1639:
	.loc 1 276 27 view .LVU889
	divss	xmm0, DWORD PTR 24[rsp]
	movss	DWORD PTR 12[rsp], xmm5
	.loc 1 275 3 is_stmt 1 view .LVU890
.LBE1639:
.LBE1644:
	.loc 1 348 26 is_stmt 0 discriminator 1 view .LVU891
	add	rbp, 8
.LBB1645:
.LBB1640:
	.loc 1 276 49 view .LVU892
	addss	xmm0, DWORD PTR .LC19[rip]
	.loc 1 276 75 view .LVU893
	sub	eax, 1
	.loc 1 276 57 view .LVU894
	cvtsi2ss	xmm1, eax
	mulss	xmm0, xmm1
	.loc 1 276 5 view .LVU895
	cvtss2sd	xmm0, xmm0
	call	lround@PLT
.LVL160:
	.loc 1 279 35 view .LVU896
	movss	xmm1, DWORD PTR -4[r15]
	movss	xmm5, DWORD PTR 12[rsp]
	.loc 1 275 19 view .LVU897
	mov	DWORD PTR -8[rbp], eax
	.loc 1 278 3 is_stmt 1 view .LVU898
	.loc 1 279 18 is_stmt 0 view .LVU899
	movss	xmm0, DWORD PTR .LC6[rip]
	.loc 1 279 35 view .LVU900
	divss	xmm1, xmm5
	.loc 1 280 29 view .LVU901
	mov	eax, DWORD PTR 4[rbx]
	sub	eax, 1
	.loc 1 279 57 view .LVU902
	addss	xmm1, DWORD PTR .LC19[rip]
	.loc 1 279 18 view .LVU903
	subss	xmm0, xmm1
	.loc 1 279 66 view .LVU904
	pxor	xmm1, xmm1
	cvtsi2ss	xmm1, eax
	mulss	xmm0, xmm1
	.loc 1 279 5 view .LVU905
	cvtss2sd	xmm0, xmm0
	call	lround@PLT
.LVL161:
	.loc 1 278 19 view .LVU906
	mov	DWORD PTR -4[rbp], eax
.LBE1640:
.LBE1645:
	.loc 1 348 32 is_stmt 1 discriminator 3 view .LVU907
.LVL162:
	.loc 1 348 26 discriminator 1 view .LVU908
	cmp	r12, r15
	jne	.L104
.LBE1681:
	.loc 1 363 22 is_stmt 0 view .LVU909
	movss	xmm4, DWORD PTR 40[rsp]
	mov	esi, DWORD PTR 368[rsp]
	mov	r15, rbx
	.loc 1 363 44 view .LVU910
	mov	ecx, DWORD PTR 352[rsp]
	.loc 1 367 8 view .LVU911
	cvttss2si	r8d, DWORD PTR 16[rsp]
	.loc 1 365 8 view .LVU912
	cvttss2si	r9d, xmm4
	.loc 1 363 22 view .LVU913
	movss	xmm3, DWORD PTR 28[rsp]
	mov	rbx, QWORD PTR 32[rsp]
.LVL163:
	.loc 1 362 3 is_stmt 1 view .LVU914
	.loc 1 363 3 view .LVU915
	.loc 1 363 6 is_stmt 0 view .LVU916
	cmp	esi, ecx
	jge	.L115
	.loc 1 363 6 view .LVU917
	mov	eax, r9d
	.loc 1 371 8 view .LVU918
	mov	edx, ecx
	.loc 1 370 8 view .LVU919
	mov	r9d, r8d
	.loc 1 369 8 view .LVU920
	mov	ebp, esi
	.loc 1 372 8 view .LVU921
	mov	r8d, eax
.L105:
.LVL164:
	.loc 1 375 3 is_stmt 1 view .LVU922
	.loc 1 377 3 view .LVU923
	.loc 1 378 3 view .LVU924
	.loc 1 380 3 view .LVU925
.LBB1682:
.LBI1682:
	.file 12 "/home/randompigyt/Hogxel-Engine/external/cglm/include/cglm/util.h"
	.loc 12 50 1 view .LVU926
.LBB1683:
	.loc 12 51 3 view .LVU927
.LBE1683:
.LBE1682:
	.loc 1 380 18 is_stmt 0 view .LVU928
	mov	edi, esi
	pxor	xmm7, xmm7
.LBB1688:
.LBB1689:
	.loc 1 382 27 view .LVU929
	pxor	xmm5, xmm5
	.loc 1 396 27 view .LVU930
	xor	r14d, r14d
.LBE1689:
.LBE1688:
	.loc 1 380 18 view .LVU931
	sub	edi, ecx
.LVL165:
.LBB1732:
.LBB1684:
	.loc 12 51 26 view .LVU932
	sub	ecx, esi
.LBE1684:
.LBE1732:
.LBB1733:
.LBB1726:
	.loc 1 384 24 view .LVU933
	pxor	xmm0, xmm0
	.loc 1 394 27 view .LVU934
	movzx	esi, BYTE PTR 48[rsp]
.LBE1726:
.LBE1733:
.LBB1734:
.LBB1685:
	.loc 12 51 31 view .LVU935
	shr	ecx, 31
	.loc 12 51 16 view .LVU936
	sar	edi, 31
.LVL166:
	.loc 12 51 16 view .LVU937
.LBE1685:
.LBE1734:
.LBB1735:
.LBB1727:
	.loc 1 384 24 view .LVU938
	cvtsi2ss	xmm0, r8d
	.loc 1 390 17 view .LVU939
	pxor	xmm4, xmm4
	cvtsi2ss	xmm7, DWORD PTR 364[rsp]
.LBE1727:
.LBE1735:
.LBB1736:
.LBB1686:
	.loc 12 51 23 view .LVU940
	lea	eax, [rdi+rcx]
.LBE1686:
.LBE1736:
	.loc 1 375 11 view .LVU941
	mov	ecx, edx
	mov	r12d, edx
.LBB1737:
.LBB1728:
	.loc 1 390 17 view .LVU942
	cvtsi2ss	xmm4, DWORD PTR 356[rsp]
.LBE1728:
.LBE1737:
	.loc 1 375 11 view .LVU943
	sub	ecx, ebp
.LVL167:
.LBB1738:
.LBB1687:
	.loc 12 51 23 view .LVU944
	mov	DWORD PTR 44[rsp], eax
.LVL168:
	.loc 12 51 23 view .LVU945
.LBE1687:
.LBE1738:
	.loc 1 381 3 is_stmt 1 view .LVU946
.LBB1739:
	.loc 1 381 8 view .LVU947
	.loc 1 381 26 discriminator 1 view .LVU948
	.loc 1 381 26 is_stmt 0 discriminator 1 view .LVU949
	lea	rax, 428[rsp]
.LVL169:
.LBB1729:
	.loc 1 382 27 view .LVU950
	cvtsi2ss	xmm5, ecx
	.loc 1 396 27 view .LVU951
	movzx	ecx, BYTE PTR 52[rsp]
.LVL170:
	.loc 1 396 27 view .LVU952
	mov	QWORD PTR 64[rsp], rax
	lea	rax, 432[rsp]
	movss	xmm2, DWORD PTR 188[rsp]
	mov	QWORD PTR 72[rsp], rax
	movss	DWORD PTR 52[rsp], xmm7
	pxor	xmm7, xmm7
	cvtsi2ss	xmm7, DWORD PTR 372[rsp]
	mov	QWORD PTR 168[rsp], rbx
	.loc 1 382 27 view .LVU953
	movss	DWORD PTR 28[rsp], xmm5
	.loc 1 384 24 view .LVU954
	pxor	xmm5, xmm5
	cvtsi2ss	xmm5, r9d
	movss	DWORD PTR 84[rsp], xmm3
	movss	DWORD PTR 92[rsp], xmm4
	movss	DWORD PTR 48[rsp], xmm7
	pxor	xmm7, xmm7
	cvtsi2ss	xmm7, esi
.LBB1690:
.LBB1691:
	.loc 12 218 25 view .LVU955
	subss	xmm0, xmm5
	movss	DWORD PTR 88[rsp], xmm5
	movss	DWORD PTR 56[rsp], xmm7
	pxor	xmm7, xmm7
	cvtsi2ss	xmm7, r13d
	movss	DWORD PTR 40[rsp], xmm0
.LBE1691:
.LBE1690:
	.loc 1 390 17 view .LVU956
	pxor	xmm0, xmm0
	lea	r13, 436[rsp]
	cvtsi2ss	xmm0, DWORD PTR 380[rsp]
	mov	QWORD PTR 96[rsp], r13
	mov	r13d, r14d
	movss	DWORD PTR 60[rsp], xmm7
	pxor	xmm7, xmm7
	cvtsi2ss	xmm7, ecx
.LBB1694:
.LBB1695:
	.loc 12 218 25 view .LVU957
	subss	xmm0, xmm4
	movss	DWORD PTR 32[rsp], xmm0
.LVL171:
	.loc 12 218 25 view .LVU958
	movss	DWORD PTR 80[rsp], xmm7
.LVL172:
	.p2align 4,,10
	.p2align 3
.L107:
	.loc 12 218 25 view .LVU959
.LBE1695:
.LBE1694:
	.loc 1 382 5 is_stmt 1 view .LVU960
.LBB1698:
.LBB1692:
	.loc 12 218 19 is_stmt 0 view .LVU961
	movss	xmm1, DWORD PTR 40[rsp]
.LBE1692:
.LBE1698:
	.loc 1 382 9 view .LVU962
	pxor	xmm6, xmm6
	.loc 1 386 8 view .LVU963
	cmp	DWORD PTR 44[rsp], -1
	.loc 1 382 9 view .LVU964
	cvtsi2ss	xmm6, r13d
	.loc 1 382 7 view .LVU965
	divss	xmm6, DWORD PTR 28[rsp]
.LVL173:
	.loc 1 384 5 is_stmt 1 view .LVU966
.LBB1699:
.LBI1690:
	.loc 12 217 1 view .LVU967
.LBB1693:
	.loc 12 218 3 view .LVU968
	.loc 12 218 19 is_stmt 0 view .LVU969
	mulss	xmm1, xmm6
	.loc 12 218 15 view .LVU970
	addss	xmm1, DWORD PTR 88[rsp]
.LBE1693:
.LBE1699:
	.loc 1 384 11 discriminator 1 view .LVU971
	divss	xmm1, DWORD PTR 84[rsp]
.LVL174:
	.loc 1 386 5 is_stmt 1 view .LVU972
	.loc 1 386 8 is_stmt 0 view .LVU973
	jne	.L106
	.loc 1 387 7 is_stmt 1 view .LVU974
	.loc 1 387 9 is_stmt 0 view .LVU975
	movss	xmm5, DWORD PTR .LC6[rip]
	subss	xmm5, xmm6
	movaps	xmm6, xmm5
.LVL175:
.L106:
.LBB1700:
.LBB1696:
	.loc 12 218 19 view .LVU976
	movss	xmm0, DWORD PTR 32[rsp]
	movss	DWORD PTR 16[rsp], xmm2
.LBE1696:
.LBE1700:
.LBE1729:
	.loc 1 381 26 discriminator 1 view .LVU977
	add	r13d, 1
	movss	DWORD PTR 24[rsp], xmm1
.LVL176:
.LBB1730:
	.loc 1 390 5 is_stmt 1 view .LVU978
.LBB1701:
.LBI1694:
	.loc 12 217 1 view .LVU979
.LBB1697:
	.loc 12 218 3 view .LVU980
	.loc 12 218 19 is_stmt 0 view .LVU981
	mulss	xmm0, xmm6
	movss	DWORD PTR 12[rsp], xmm6
	.loc 12 218 15 view .LVU982
	addss	xmm0, DWORD PTR 92[rsp]
.LBE1697:
.LBE1701:
	.loc 1 390 10 discriminator 1 view .LVU983
	cvtss2sd	xmm0, xmm0
	call	lround@PLT
.LVL177:
.LBB1702:
.LBB1703:
	.loc 12 218 25 view .LVU984
	movss	xmm7, DWORD PTR 52[rsp]
	movss	xmm0, DWORD PTR 48[rsp]
	.loc 12 218 19 view .LVU985
	movss	xmm6, DWORD PTR 12[rsp]
.LBE1703:
.LBE1702:
	.loc 1 390 8 discriminator 2 view .LVU986
	mov	ebx, eax
.LVL178:
	.loc 1 391 5 is_stmt 1 view .LVU987
.LBB1705:
.LBI1702:
	.loc 12 217 1 view .LVU988
.LBB1704:
	.loc 12 218 3 view .LVU989
	.loc 12 218 25 is_stmt 0 view .LVU990
	subss	xmm0, xmm7
	.loc 12 218 19 view .LVU991
	mulss	xmm0, xmm6
	.loc 12 218 15 view .LVU992
	addss	xmm0, xmm7
.LBE1704:
.LBE1705:
	.loc 1 391 10 discriminator 1 view .LVU993
	cvtss2sd	xmm0, xmm0
	call	lround@PLT
.LVL179:
.LBB1706:
.LBB1707:
	.loc 12 218 25 view .LVU994
	pxor	xmm0, xmm0
.LBE1707:
.LBE1706:
	.loc 1 394 7 view .LVU995
	movss	xmm2, DWORD PTR 16[rsp]
	movss	xmm6, DWORD PTR 56[rsp]
.LBB1711:
.LBB1708:
	.loc 12 218 19 view .LVU996
	movss	xmm1, DWORD PTR 24[rsp]
.LBE1708:
.LBE1711:
	.loc 1 401 5 view .LVU997
	mov	ecx, eax
	mov	esi, ebp
	mov	r8, QWORD PTR 96[rsp]
	mov	rdi, r15
	.loc 1 396 59 discriminator 1 view .LVU998
	movss	DWORD PTR 12[rsp], xmm2
.LVL180:
	.loc 1 391 8 discriminator 2 view .LVU999
	mov	r14d, eax
.LVL181:
	.loc 1 393 5 is_stmt 1 view .LVU1000
	.loc 1 394 7 is_stmt 0 view .LVU1001
	divss	xmm6, xmm2
.LVL182:
.LBB1712:
.LBI1706:
	.loc 12 217 1 is_stmt 1 view .LVU1002
.LBB1709:
	.loc 12 218 3 view .LVU1003
	.loc 12 218 3 is_stmt 0 view .LVU1004
.LBE1709:
.LBE1712:
	.loc 1 393 13 view .LVU1005
	mov	BYTE PTR 439[rsp], -1
.LBB1713:
.LBB1710:
	.loc 12 218 25 view .LVU1006
	subss	xmm0, xmm6
	.loc 12 218 19 view .LVU1007
	mulss	xmm0, xmm1
	.loc 12 218 15 view .LVU1008
	addss	xmm0, xmm6
.LBE1710:
.LBE1713:
	.loc 1 395 7 view .LVU1009
	movss	xmm6, DWORD PTR 60[rsp]
	divss	xmm6, xmm2
.LVL183:
.LBB1714:
.LBI1714:
	.loc 12 217 1 is_stmt 1 view .LVU1010
.LBB1715:
	.loc 12 218 3 view .LVU1011
	.loc 12 218 3 is_stmt 0 view .LVU1012
.LBE1715:
.LBE1714:
	.loc 1 394 59 discriminator 1 view .LVU1013
	mulss	xmm0, xmm2
	.loc 1 393 13 view .LVU1014
	cvttss2si	edx, xmm0
.LBB1718:
.LBB1716:
	.loc 12 218 25 view .LVU1015
	pxor	xmm0, xmm0
.LBE1716:
.LBE1718:
	.loc 1 393 13 view .LVU1016
	mov	BYTE PTR 436[rsp], dl
.LBB1719:
.LBB1717:
	.loc 12 218 25 view .LVU1017
	subss	xmm0, xmm6
	.loc 12 218 19 view .LVU1018
	mulss	xmm0, xmm1
	.loc 12 218 15 view .LVU1019
	addss	xmm0, xmm6
.LBE1717:
.LBE1719:
	.loc 1 396 7 view .LVU1020
	movss	xmm6, DWORD PTR 80[rsp]
	divss	xmm6, xmm2
.LVL184:
.LBB1720:
.LBI1720:
	.loc 12 217 1 is_stmt 1 view .LVU1021
.LBB1721:
	.loc 12 218 3 view .LVU1022
	.loc 12 218 3 is_stmt 0 view .LVU1023
.LBE1721:
.LBE1720:
	.loc 1 401 5 is_stmt 1 view .LVU1024
	.loc 1 395 59 is_stmt 0 discriminator 1 view .LVU1025
	mulss	xmm0, xmm2
	.loc 1 393 13 view .LVU1026
	cvttss2si	edx, xmm0
.LBB1724:
.LBB1722:
	.loc 12 218 25 view .LVU1027
	pxor	xmm0, xmm0
.LBE1722:
.LBE1724:
	.loc 1 393 13 view .LVU1028
	mov	BYTE PTR 437[rsp], dl
.LBB1725:
.LBB1723:
	.loc 12 218 25 view .LVU1029
	subss	xmm0, xmm6
	.loc 12 218 19 view .LVU1030
	mulss	xmm0, xmm1
	.loc 12 218 15 view .LVU1031
	addss	xmm0, xmm6
.LBE1723:
.LBE1725:
	.loc 1 396 59 discriminator 1 view .LVU1032
	mulss	xmm0, xmm2
	.loc 1 393 13 view .LVU1033
	cvttss2si	edx, xmm0
	mov	BYTE PTR 438[rsp], dl
	.loc 1 401 5 view .LVU1034
	mov	edx, ebx
	call	draw_vertical_line.constprop.0
.LVL185:
	.loc 1 402 5 is_stmt 1 view .LVU1035
	.loc 1 402 55 is_stmt 0 view .LVU1036
	mov	eax, DWORD PTR .LC21[rip]
	.loc 1 402 5 view .LVU1037
	xor	edx, edx
	mov	esi, ebp
	mov	r8, QWORD PTR 64[rsp]
	mov	ecx, ebx
	mov	rdi, r15
	.loc 1 402 55 view .LVU1038
	mov	DWORD PTR 428[rsp], eax
	.loc 1 402 5 view .LVU1039
	call	draw_vertical_line.constprop.0
.LVL186:
	.loc 1 403 5 is_stmt 1 view .LVU1040
	.loc 1 404 36 is_stmt 0 view .LVU1041
	mov	eax, DWORD PTR .LC22[rip]
	.loc 1 403 5 view .LVU1042
	mov	esi, ebp
	mov	edx, r14d
	mov	r8, QWORD PTR 72[rsp]
	mov	rdi, r15
.LBE1730:
	.loc 1 381 34 discriminator 2 view .LVU1043
	add	ebp, 1
.LVL187:
.LBB1731:
	.loc 1 404 36 view .LVU1044
	mov	DWORD PTR 432[rsp], eax
	.loc 1 403 5 view .LVU1045
	mov	eax, DWORD PTR 4[r15]
	lea	ecx, -1[rax]
	call	draw_vertical_line.constprop.0
.LVL188:
	.loc 1 403 5 view .LVU1046
.LBE1731:
	.loc 1 381 34 is_stmt 1 discriminator 2 view .LVU1047
	.loc 1 381 26 discriminator 1 view .LVU1048
	cmp	ebp, r12d
	movss	xmm2, DWORD PTR 12[rsp]
	jle	.L107
	.loc 1 381 26 is_stmt 0 discriminator 1 view .LVU1049
	mov	rbx, QWORD PTR 168[rsp]
.LVL189:
.L74:
	.loc 1 381 26 discriminator 1 view .LVU1050
.LBE1739:
.LBE1743:
.LBE1747:
.LBE1754:
	.loc 1 427 49 is_stmt 1 discriminator 2 view .LVU1051
	add	DWORD PTR 184[rsp], 1
	.loc 1 427 26 is_stmt 0 discriminator 1 view .LVU1052
	mov	rdi, QWORD PTR 144[rsp]
	.loc 1 427 49 discriminator 2 view .LVU1053
	mov	eax, DWORD PTR 184[rsp]
.LVL190:
	.loc 1 427 26 is_stmt 1 discriminator 1 view .LVU1054
	cmp	rax, rdi
	jnb	.L53
.LBB1755:
	.loc 1 430 5 view .LVU1055
.LBB1748:
	.loc 1 432 35 view .LVU1056
	.loc 1 432 35 view .LVU1057
	mov	rdi, QWORD PTR 160[rsp]
	cmp	rax, rdi
	jnb	.L62
.LVL191:
	.loc 1 432 35 view .LVU1058
	mov	rsi, QWORD PTR 104[rsp]
	lea	rdx, [rsi+rax*4]
.LBE1748:
	.loc 1 432 52 is_stmt 0 view .LVU1059
	movzx	edi, BYTE PTR [rdx]
	.loc 1 433 52 view .LVU1060
	movzx	esi, BYTE PTR 2[rdx]
	.loc 1 432 74 view .LVU1061
	movzx	r13d, BYTE PTR 1[rdx]
	.loc 1 432 52 view .LVU1062
	mov	BYTE PTR 48[rsp], dil
.LBE1755:
.LBE1759:
	.loc 1 432 57 is_stmt 1 view .LVU1063
	.loc 1 432 57 view .LVU1064
	.loc 1 432 57 view .LVU1065
	.loc 1 433 35 view .LVU1066
	.loc 1 433 35 view .LVU1067
	.loc 1 433 35 view .LVU1068
.LBB1760:
.LBB1756:
	.loc 1 433 52 is_stmt 0 view .LVU1069
	mov	BYTE PTR 52[rsp], sil
.LBB1749:
	.loc 1 430 31 is_stmt 1 view .LVU1070
	jmp	.L63
.LVL192:
	.p2align 4,,10
	.p2align 3
.L133:
	.loc 1 430 31 is_stmt 0 view .LVU1071
.LBE1749:
.LBB1750:
.LBB1744:
.LBB1740:
.LBB1600:
	.loc 1 127 10 is_stmt 1 view .LVU1072
	.loc 1 127 13 is_stmt 0 view .LVU1073
	movaps	xmm6, xmm1
	unpckhps	xmm6, xmm1
	comiss	xmm5, xmm6
	jbe	.L75
.LBB1575:
	.loc 1 128 5 is_stmt 1 view .LVU1074
	.loc 1 129 5 view .LVU1075
.LVL193:
.LBB1576:
.LBI1576:
	.loc 11 390 1 view .LVU1076
	.loc 11 394 3 view .LVU1077
.LBB1577:
.LBI1577:
	.loc 6 196 1 view .LVU1078
.LBB1578:
	.loc 6 198 3 view .LVU1079
	.loc 6 198 10 is_stmt 0 view .LVU1080
	subps	xmm1, xmm0
.LVL194:
	.loc 6 198 10 view .LVU1081
.LBE1578:
.LBE1577:
.LBE1576:
	.loc 1 131 5 is_stmt 1 view .LVU1082
.LBB1579:
.LBB1580:
	.loc 1 53 18 is_stmt 0 view .LVU1083
	movss	xmm6, DWORD PTR .LC3[rip]
	movaps	xmm7, xmm1
	unpckhps	xmm7, xmm1
.LVL195:
	.loc 1 53 18 view .LVU1084
.LBE1580:
.LBI1579:
	.loc 1 52 20 is_stmt 1 view .LVU1085
.LBB1581:
	.loc 1 53 3 view .LVU1086
	.loc 1 53 18 is_stmt 0 view .LVU1087
	comiss	xmm6, xmm7
	jbe	.L77
	.loc 1 53 18 discriminator 1 view .LVU1088
	comiss	xmm7, DWORD PTR .LC4[rip]
	ja	.L74
.L77:
.LVL196:
	.loc 1 53 18 discriminator 1 view .LVU1089
.LBE1581:
.LBE1579:
	.loc 1 135 5 is_stmt 1 view .LVU1090
	.loc 1 137 5 view .LVU1091
	.loc 1 137 19 is_stmt 0 view .LVU1092
	movss	DWORD PTR 280[rsp], xmm5
	.loc 1 138 5 is_stmt 1 view .LVU1093
	.loc 1 135 44 is_stmt 0 view .LVU1094
	movaps	xmm6, xmm5
.LBE1575:
	.loc 1 143 6 view .LVU1095
	comiss	xmm4, xmm3
.LBB1582:
	.loc 1 135 44 view .LVU1096
	subss	xmm6, xmm4
	.loc 1 135 11 view .LVU1097
	divss	xmm6, xmm7
.LVL197:
	.loc 1 138 44 view .LVU1098
	mulss	xmm1, xmm6
	.loc 1 138 35 view .LVU1099
	addss	xmm0, xmm1
	.loc 1 138 19 view .LVU1100
	movss	DWORD PTR 272[rsp], xmm0
.LBE1582:
	.loc 1 143 3 is_stmt 1 view .LVU1101
	.loc 1 143 6 is_stmt 0 view .LVU1102
	ja	.L143
.LVL198:
.L134:
	.loc 1 156 10 is_stmt 1 view .LVU1103
	.loc 1 156 24 is_stmt 0 view .LVU1104
	movss	xmm7, DWORD PTR 280[rsp]
	.loc 1 156 13 view .LVU1105
	comiss	xmm7, xmm3
	.loc 1 156 24 view .LVU1106
	movss	DWORD PTR 16[rsp], xmm7
	.loc 1 156 13 view .LVU1107
	ja	.L86
	.loc 1 174 21 view .LVU1108
	movss	xmm2, DWORD PTR 272[rsp]
	.loc 1 173 21 view .LVU1109
	movss	xmm6, DWORD PTR 256[rsp]
	.loc 1 174 21 view .LVU1110
	movss	DWORD PTR 24[rsp], xmm2
	jmp	.L85
.LVL199:
	.p2align 4,,10
	.p2align 3
.L115:
	.loc 1 174 21 view .LVU1111
.LBE1600:
.LBE1740:
	.loc 1 366 8 view .LVU1112
	mov	edx, esi
	.loc 1 364 8 view .LVU1113
	mov	ebp, ecx
	jmp	.L105
.LVL200:
	.p2align 4,,10
	.p2align 3
.L93:
.LBB1741:
.LBB1601:
	.loc 1 220 3 is_stmt 1 view .LVU1114
	.loc 1 220 6 is_stmt 0 view .LVU1115
	test	al, al
	je	.L100
	.loc 1 221 5 is_stmt 1 view .LVU1116
	.loc 1 221 8 is_stmt 0 view .LVU1117
	comiss	xmm1, DWORD PTR 12[rsp]
	jnb	.L96
.LVL201:
.L98:
	.loc 1 226 7 is_stmt 1 view .LVU1118
.LBB1583:
.LBI1583:
	.loc 11 148 1 view .LVU1119
	.loc 11 152 3 view .LVU1120
.LBB1584:
.LBI1584:
	.loc 6 980 1 view .LVU1121
.LBB1585:
	.loc 6 982 3 view .LVU1122
	.loc 6 982 18 is_stmt 0 view .LVU1123
	movaps	XMMWORD PTR 272[rsp], xmm0
.LVL202:
	.loc 6 982 18 view .LVU1124
	movss	DWORD PTR 24[rsp], xmm0
	unpckhps	xmm0, xmm0
	movss	DWORD PTR 16[rsp], xmm0
	jmp	.L100
.LVL203:
	.p2align 4,,10
	.p2align 3
.L86:
	.loc 6 982 18 view .LVU1125
.LBE1585:
.LBE1584:
.LBE1583:
.LBB1586:
	.loc 1 157 5 is_stmt 1 view .LVU1126
	.loc 1 158 5 view .LVU1127
.LBB1587:
.LBI1587:
	.loc 11 390 1 view .LVU1128
	.loc 11 394 3 view .LVU1129
.LBB1588:
.LBI1588:
	.loc 6 931 1 view .LVU1130
.LBB1589:
	.loc 6 933 3 view .LVU1131
	.loc 6 933 3 is_stmt 0 view .LVU1132
.LBE1589:
.LBE1588:
.LBB1590:
.LBI1590:
	.loc 6 931 1 is_stmt 1 view .LVU1133
.LBB1591:
	.loc 6 933 3 view .LVU1134
	.loc 6 933 3 is_stmt 0 view .LVU1135
.LBE1591:
.LBE1590:
.LBB1592:
.LBI1592:
	.loc 6 196 1 is_stmt 1 view .LVU1136
.LBB1593:
	.loc 6 198 3 view .LVU1137
	.loc 6 198 10 is_stmt 0 view .LVU1138
	movaps	xmm0, XMMWORD PTR 272[rsp]
	subps	xmm0, XMMWORD PTR 256[rsp]
.LVL204:
	.loc 6 198 10 view .LVU1139
.LBE1593:
.LBE1592:
.LBE1587:
	.loc 1 160 5 is_stmt 1 view .LVU1140
.LBB1594:
.LBB1595:
	.loc 1 53 18 is_stmt 0 view .LVU1141
	movss	xmm6, DWORD PTR .LC3[rip]
	movaps	xmm1, xmm0
	unpckhps	xmm1, xmm0
.LVL205:
	.loc 1 53 18 view .LVU1142
.LBE1595:
.LBI1594:
	.loc 1 52 20 is_stmt 1 view .LVU1143
.LBB1596:
	.loc 1 53 3 view .LVU1144
	.loc 1 53 18 is_stmt 0 view .LVU1145
	comiss	xmm6, xmm1
	jbe	.L87
	.loc 1 53 18 discriminator 1 view .LVU1146
	comiss	xmm1, DWORD PTR .LC4[rip]
	ja	.L74
.L87:
.LVL206:
	.loc 1 53 18 discriminator 1 view .LVU1147
.LBE1596:
.LBE1594:
	.loc 1 164 5 is_stmt 1 view .LVU1148
	.loc 1 166 5 view .LVU1149
	.loc 1 164 43 is_stmt 0 view .LVU1150
	movaps	xmm7, xmm3
	movss	DWORD PTR 16[rsp], xmm3
	.loc 1 167 31 view .LVU1151
	movss	xmm6, DWORD PTR 256[rsp]
	.loc 1 166 19 view .LVU1152
	movss	DWORD PTR 280[rsp], xmm3
	.loc 1 167 5 is_stmt 1 view .LVU1153
	.loc 1 164 43 is_stmt 0 view .LVU1154
	subss	xmm7, xmm4
	.loc 1 164 11 view .LVU1155
	divss	xmm7, xmm1
.LVL207:
	.loc 1 167 44 view .LVU1156
	mulss	xmm0, xmm7
	.loc 1 167 35 view .LVU1157
	addss	xmm0, xmm6
	movss	DWORD PTR 24[rsp], xmm0
	.loc 1 167 19 view .LVU1158
	movss	DWORD PTR 272[rsp], xmm0
	jmp	.L85
.LVL208:
	.p2align 4,,10
	.p2align 3
.L135:
	.loc 1 167 19 view .LVU1159
.LBE1586:
	.loc 1 215 7 is_stmt 1 view .LVU1160
.LBB1597:
.LBI1597:
	.loc 11 148 1 view .LVU1161
	.loc 11 152 3 view .LVU1162
.LBB1598:
.LBI1598:
	.loc 6 980 1 view .LVU1163
.LBB1599:
	.loc 6 982 3 view .LVU1164
	.loc 6 982 18 is_stmt 0 view .LVU1165
	movaps	XMMWORD PTR 256[rsp], xmm10
.LVL209:
	.loc 6 982 18 view .LVU1166
.LBE1599:
.LBE1598:
.LBE1597:
	.loc 1 220 3 is_stmt 1 view .LVU1167
	movaps	xmm6, xmm10
	unpckhps	xmm10, xmm10
.LVL210:
	.loc 1 220 3 is_stmt 0 view .LVU1168
	movaps	xmm4, xmm10
	.loc 1 220 6 view .LVU1169
	test	al, al
	jne	.L98
	.loc 1 220 6 view .LVU1170
	jmp	.L100
.LVL211:
.L111:
	.loc 1 220 6 view .LVU1171
.LBE1601:
.LBE1741:
.LBE1744:
.LBE1750:
.LBE1756:
.LBE1760:
	.loc 1 415 29 view .LVU1172
	mov	QWORD PTR 104[rsp], 0
.LVL212:
.L53:
	.loc 1 436 3 is_stmt 1 view .LVU1173
	.loc 1 436 3 view .LVU1174
	mov	rax, QWORD PTR 440[rsp]
	sub	rax, QWORD PTR fs:40
	jne	.L144
	mov	rdi, QWORD PTR 104[rsp]
	.loc 1 437 1 is_stmt 0 view .LVU1175
	add	rsp, 456
	.cfi_remember_state
	.cfi_def_cfa_offset 56
	pop	rbx
	.cfi_def_cfa_offset 48
	pop	rbp
	.cfi_def_cfa_offset 40
	pop	r12
	.cfi_def_cfa_offset 32
	pop	r13
	.cfi_def_cfa_offset 24
	pop	r14
	.cfi_def_cfa_offset 16
	pop	r15
	.cfi_def_cfa_offset 8
.LVL213:
	.loc 1 436 3 view .LVU1176
	jmp	free@PLT
.LVL214:
.L139:
	.cfi_restore_state
.LBB1761:
.LBB1503:
	.loc 1 418 5 is_stmt 1 discriminator 2 view .LVU1177
	lea	rcx, __PRETTY_FUNCTION__.2[rip]
	mov	edx, 418
	lea	rsi, .LC0[rip]
	lea	rdi, .LC16[rip]
	call	__assert_fail@PLT
.LVL215:
.L101:
	.loc 1 418 5 is_stmt 0 discriminator 2 view .LVU1178
.LBE1503:
.LBE1761:
.LBB1762:
.LBB1757:
.LBB1751:
.LBB1745:
.LBB1742:
.LBB1646:
.LBB1641:
	.loc 1 273 3 is_stmt 1 discriminator 3 view .LVU1179
	lea	rcx, __PRETTY_FUNCTION__.1[rip]
	mov	edx, 273
	lea	rsi, .LC0[rip]
	lea	rdi, .LC20[rip]
	call	__assert_fail@PLT
.LVL216:
.L142:
	.loc 1 273 3 is_stmt 0 discriminator 3 view .LVU1180
.LBE1641:
.LBE1646:
.LBE1742:
.LBE1745:
.LBE1751:
.LBB1752:
	.loc 1 430 31 is_stmt 1 discriminator 1 view .LVU1181
	lea	rcx, __PRETTY_FUNCTION__.2[rip]
	mov	edx, 430
	lea	rsi, .LC0[rip]
	lea	rdi, .LC18[rip]
	call	__assert_fail@PLT
.LVL217:
.L138:
	.loc 1 430 31 is_stmt 0 discriminator 1 view .LVU1182
.LBE1752:
.LBE1757:
.LBE1762:
.LBB1763:
	.loc 1 417 5 is_stmt 1 discriminator 7 view .LVU1183
	lea	rcx, __PRETTY_FUNCTION__.2[rip]
	mov	edx, 417
	lea	rsi, .LC0[rip]
	lea	rdi, .LC12[rip]
	call	__assert_fail@PLT
.LVL218:
.L62:
	.loc 1 417 5 is_stmt 0 discriminator 7 view .LVU1184
.LBE1763:
.LBB1764:
.LBB1758:
.LBB1753:
	.loc 1 432 35 is_stmt 1 discriminator 2 view .LVU1185
	lea	rcx, __PRETTY_FUNCTION__.2[rip]
	mov	edx, 432
	lea	rsi, .LC0[rip]
	lea	rdi, .LC17[rip]
	call	__assert_fail@PLT
.LVL219:
.L144:
	.loc 1 432 35 is_stmt 0 discriminator 2 view .LVU1186
.LBE1753:
.LBE1758:
.LBE1764:
	.loc 1 436 3 view .LVU1187
	call	__stack_chk_fail@PLT
.LVL220:
	.cfi_endproc
.LFE1309:
	.size	dsr_render_walls, .-dsr_render_walls
	.section	.rodata
	.align 16
	.type	__PRETTY_FUNCTION__.0, @object
	.size	__PRETTY_FUNCTION__.0, 19
__PRETTY_FUNCTION__.0:
	.string	"draw_vertical_line"
	.align 16
	.type	__PRETTY_FUNCTION__.1, @object
	.size	__PRETTY_FUNCTION__.1, 16
__PRETTY_FUNCTION__.1:
	.string	"to_screen_space"
	.align 16
	.type	__PRETTY_FUNCTION__.2, @object
	.size	__PRETTY_FUNCTION__.2, 17
__PRETTY_FUNCTION__.2:
	.string	"dsr_render_walls"
	.section	.rodata.cst4,"aM",@progbits,4
	.align 4
.LC2:
	.long	2139095040
	.align 4
.LC3:
	.long	897988541
	.align 4
.LC4:
	.long	-1249495107
	.set	.LC6,.LC8
	.section	.rodata.cst16,"aM",@progbits,16
	.align 16
.LC7:
	.long	-2147483648
	.long	0
	.long	0
	.long	0
	.align 16
.LC8:
	.long	1065353216
	.long	0
	.long	0
	.long	0
	.align 16
.LC9:
	.long	0
	.long	1065353216
	.long	0
	.long	0
	.align 16
.LC10:
	.long	0
	.long	0
	.long	1065353216
	.long	0
	.align 16
.LC11:
	.long	0
	.long	0
	.long	0
	.long	1065353216
	.section	.rodata.cst4
	.align 4
.LC13:
	.long	805306368
	.align 4
.LC14:
	.long	1132396544
	.align 4
.LC19:
	.long	1056964608
	.align 4
.LC21:
	.byte	35
	.byte	35
	.byte	35
	.byte	-1
	.align 4
.LC22:
	.byte	24
	.byte	24
	.byte	24
	.byte	-1
	.text
.Letext0:
	.file 13 "/usr/include/bits/types.h"
	.file 14 "/usr/include/bits/stdint-intn.h"
	.file 15 "/usr/include/bits/stdint-uintn.h"
	.file 16 "/home/randompigyt/Hogxel-Engine/external/cglm/include/cglm/types.h"
	.file 17 "/home/randompigyt/Hogxel-Engine/src/common/camera.h"
	.file 18 "/home/randompigyt/Hogxel-Engine/include/doom-style-renderer.h"
	.file 19 "/usr/include/bits/mathcalls.h"
	.file 20 "/usr/include/assert.h"
	.file 21 "/usr/include/stdlib.h"
	.section	.note.GNU-stack,"",@progbits
